

HI-TECH Software PIC LITE Macro Assembler V9.83 build 10920 
                                                                                               Tue Apr 23 17:36:33 2019

HI-TECH Software Omniscient Code Generator (Lite mode) build 10920
     1  0000                     opt subtitle "HI-TECH Software Omniscient Code Generator (Lite mode) build 10920"
     2                           
     3                           opt pagewidth 120
     4                           
     5                           	opt lm
     6                           
     7                           	processor	16F684
     8                           clrc	macro
     9                           	bcf	3,0
    10  0000                     	endm
    11                           clrz	macro
    12                           	bcf	3,2
    13  0000                     	endm
    14                           setc	macro
    15                           	bsf	3,0
    16  0000                     	endm
    17                           setz	macro
    18                           	bsf	3,2
    19  0000                     	endm
    20                           skipc	macro
    21                           	btfss	3,0
    22  0000                     	endm
    23                           skipz	macro
    24                           	btfss	3,2
    25  0000                     	endm
    26                           skipnc	macro
    27                           	btfsc	3,0
    28  0000                     	endm
    29                           skipnz	macro
    30                           	btfsc	3,2
    31  0000                     	endm
    32  0000                     indf	equ	0
    33  0000                     indf0	equ	0
    34  0002                     pc	equ	2
    35  0002                     pcl	equ	2
    36  0003                     status	equ	3
    37  0004                     fsr	equ	4
    38  0004                     fsr0	equ	4
    39  0001                     c	equ	1
    40  0000                     z	equ	0
    41  000A                     pclath	equ	10
    42                           	FNCALL	_main,_Device_Memory_Init
    43                           	FNCALL	_main,_IOPort_Init
    44                           	FNCALL	_main,_key_Scan
    45                           	FNCALL	_key_Scan,_Input_INPUT
    46                           	FNCALL	_key_Scan,_Input_INHIGH
    47                           	FNCALL	_key_Scan,_Input_INLOW
    48                           	FNCALL	_Input_INLOW,_Delay_xms
    49                           	FNCALL	_Input_INHIGH,_Delay_xms
    50                           	FNCALL	_Input_INPUT,_Delay_xms
    51                           	FNROOT	_main
    52                           	global	_flag_0
    53                           psect	idataCOMMON,class=CODE,space=0,delta=2
    54                           global __pidataCOMMON
    55  0360                     __pidataCOMMON:
    56                           	file	"MS80FX01_Project.c"
    57                           	line	13
    58                           
    59                           ;initializer for _flag_0
    60  0360  3401               	retlw	01h
    61                           	global	_flag_F
    62                           	global	_FSR
    63  0004                     _FSR	set	4
    64                           	DABS	1,4,1	;_FSR
    65                           
    66                           	global	_INDF
    67  0000                     _INDF	set	0
    68                           	DABS	1,0,1	;_INDF
    69                           
    70                           	global	_PCL
    71  0002                     _PCL	set	2
    72                           	DABS	1,2,1	;_PCL
    73                           
    74                           	global	_PCLATH
    75  000A                     _PCLATH	set	10
    76                           	DABS	1,10,1	;_PCLATH
    77                           
    78                           	global	_PORTA
    79  0005                     _PORTA	set	5
    80                           	DABS	1,5,1	;_PORTA
    81                           
    82                           	global	_SFR06
    83  0006                     _SFR06	set	6
    84                           	DABS	1,6,1	;_SFR06
    85                           
    86                           	global	_SFR07
    87  0007                     _SFR07	set	7
    88                           	DABS	1,7,1	;_SFR07
    89                           
    90                           	global	_SFR08
    91  0008                     _SFR08	set	8
    92                           	DABS	1,8,1	;_SFR08
    93                           
    94                           	global	_SFR09
    95  0009                     _SFR09	set	9
    96                           	DABS	1,9,1	;_SFR09
    97                           
    98                           	global	_STATUS
    99  0003                     _STATUS	set	3
   100                           	DABS	1,3,1	;_STATUS
   101                           
   102                           	global	_TMR0
   103  0001                     _TMR0	set	1
   104                           	DABS	1,1,1	;_TMR0
   105                           
   106                           	global	_CCPR1
   107  0013                     _CCPR1	set	19
   108                           	DABS	1,19,2	;_CCPR1
   109                           
   110                           	global	_TMR1
   111  000E                     _TMR1	set	14
   112                           	DABS	1,14,2	;_TMR1
   113                           
   114                           	global	_ADCON0
   115  001F                     _ADCON0	set	31
   116                           	DABS	1,31,1	;_ADCON0
   117                           
   118                           	global	_ADRESH
   119  001E                     _ADRESH	set	30
   120                           	DABS	1,30,1	;_ADRESH
   121                           
   122                           	global	_CCP1CON
   123  0015                     _CCP1CON	set	21
   124                           	DABS	1,21,1	;_CCP1CON
   125                           
   126                           	global	_CCPR1H
   127  0014                     _CCPR1H	set	20
   128                           	DABS	1,20,1	;_CCPR1H
   129                           
   130                           	global	_CCPR1L
   131  0013                     _CCPR1L	set	19
   132                           	DABS	1,19,1	;_CCPR1L
   133                           
   134                           	global	_CMCON0
   135  0019                     _CMCON0	set	25
   136                           	DABS	1,25,1	;_CMCON0
   137                           
   138                           	global	_CMCON1
   139  001A                     _CMCON1	set	26
   140                           	DABS	1,26,1	;_CMCON1
   141                           
   142                           	global	_ECCPAS
   143  0017                     _ECCPAS	set	23
   144                           	DABS	1,23,1	;_ECCPAS
   145                           
   146                           	global	_INTCONbits
   147  000B                     _INTCONbits	set	11
   148                           	DABS	1,11,1	;_INTCONbits
   149                           
   150                           	global	_MSCKCONbits
   151  001B                     _MSCKCONbits	set	27
   152                           	DABS	1,27,1	;_MSCKCONbits
   153                           
   154                           	global	_PCLATHbits
   155  000A                     _PCLATHbits	set	10
   156                           	DABS	1,10,1	;_PCLATHbits
   157                           
   158                           	global	_PIR1bits
   159  000C                     _PIR1bits	set	12
   160                           	DABS	1,12,1	;_PIR1bits
   161                           
   162                           	global	_PORTAbits
   163  0005                     _PORTAbits	set	5
   164                           	DABS	1,5,1	;_PORTAbits
   165                           
   166                           	global	_PORTC
   167  0007                     _PORTC	set	7
   168                           	DABS	1,7,1	;_PORTC
   169                           
   170                           	global	_PWM1CON
   171  0016                     _PWM1CON	set	22
   172                           	DABS	1,22,1	;_PWM1CON
   173                           
   174                           	global	_SFR00
   175  0000                     _SFR00	set	0
   176                           	DABS	1,0,1	;_SFR00
   177                           
   178                           	global	_SFR01
   179  0001                     _SFR01	set	1
   180                           	DABS	1,1,1	;_SFR01
   181                           
   182                           	global	_SFR02
   183  0002                     _SFR02	set	2
   184                           	DABS	1,2,1	;_SFR02
   185                           
   186                           	global	_SFR03
   187  0003                     _SFR03	set	3
   188                           	DABS	1,3,1	;_SFR03
   189                           
   190                           	global	_SFR04
   191  0004                     _SFR04	set	4
   192                           	DABS	1,4,1	;_SFR04
   193                           
   194                           	global	_SFR05
   195  0005                     _SFR05	set	5
   196                           	DABS	1,5,1	;_SFR05
   197                           
   198                           	global	_SFR0A
   199  000A                     _SFR0A	set	10
   200                           	DABS	1,10,1	;_SFR0A
   201                           
   202                           	global	_SFR0B
   203  000B                     _SFR0B	set	11
   204                           	DABS	1,11,1	;_SFR0B
   205                           
   206                           	global	_SFR0C
   207  000C                     _SFR0C	set	12
   208                           	DABS	1,12,1	;_SFR0C
   209                           
   210                           	global	_SFR11
   211  0011                     _SFR11	set	17
   212                           	DABS	1,17,1	;_SFR11
   213                           
   214                           	global	_SFR12
   215  0012                     _SFR12	set	18
   216                           	DABS	1,18,1	;_SFR12
   217                           
   218                           	global	_SFR18
   219  0018                     _SFR18	set	24
   220                           	DABS	1,24,1	;_SFR18
   221                           
   222                           	global	_SFR1B
   223  001B                     _SFR1B	set	27
   224                           	DABS	1,27,1	;_SFR1B
   225                           
   226                           	global	_SFR1C
   227  001C                     _SFR1C	set	28
   228                           	DABS	1,28,1	;_SFR1C
   229                           
   230                           	global	_SFR1D
   231  001D                     _SFR1D	set	29
   232                           	DABS	1,29,1	;_SFR1D
   233                           
   234                           	global	_SOSCPRHbits
   235  001D                     _SOSCPRHbits	set	29
   236                           	DABS	1,29,1	;_SOSCPRHbits
   237                           
   238                           	global	_STATUSbits
   239  0003                     _STATUSbits	set	3
   240                           	DABS	1,3,1	;_STATUSbits
   241                           
   242                           	global	_T1CON
   243  0010                     _T1CON	set	16
   244                           	DABS	1,16,1	;_T1CON
   245                           
   246                           	global	_T2CONbits
   247  0012                     _T2CONbits	set	18
   248                           	DABS	1,18,1	;_T2CONbits
   249                           
   250                           	global	_TMR1H
   251  000F                     _TMR1H	set	15
   252                           	DABS	1,15,1	;_TMR1H
   253                           
   254                           	global	_TMR1L
   255  000E                     _TMR1L	set	14
   256                           	DABS	1,14,1	;_TMR1L
   257                           
   258                           	global	_WDTCONbits
   259  0018                     _WDTCONbits	set	24
   260                           	DABS	1,24,1	;_WDTCONbits
   261                           
   262                           	global	_ADFM
   263  00FF                     _ADFM	set	255
   264                           	DABS	1,31,1	;_ADFM
   265                           
   266                           	global	_ADIF
   267  0066                     _ADIF	set	102
   268                           	DABS	1,12,1	;_ADIF
   269                           
   270                           	global	_ADON
   271  00F8                     _ADON	set	248
   272                           	DABS	1,31,1	;_ADON
   273                           
   274                           	global	_C
   275  0018                     _C	set	24
   276                           	DABS	1,3,1	;_C
   277                           
   278                           	global	_C1IF
   279  0063                     _C1IF	set	99
   280                           	DABS	1,12,1	;_C1IF
   281                           
   282                           	global	_C1INV
   283  00CC                     _C1INV	set	204
   284                           	DABS	1,25,1	;_C1INV
   285                           
   286                           	global	_C1OUT
   287  00CE                     _C1OUT	set	206
   288                           	DABS	1,25,1	;_C1OUT
   289                           
   290                           	global	_C2IF
   291  0064                     _C2IF	set	100
   292                           	DABS	1,12,1	;_C2IF
   293                           
   294                           	global	_C2INV
   295  00CD                     _C2INV	set	205
   296                           	DABS	1,25,1	;_C2INV
   297                           
   298                           	global	_C2OUT
   299  00CF                     _C2OUT	set	207
   300                           	DABS	1,25,1	;_C2OUT
   301                           
   302                           	global	_C2SYNC
   303  00D0                     _C2SYNC	set	208
   304                           	DABS	1,26,1	;_C2SYNC
   305                           
   306                           	global	_CARRY
   307  0018                     _CARRY	set	24
   308                           	DABS	1,3,1	;_CARRY
   309                           
   310                           	global	_CCP1IF
   311  0065                     _CCP1IF	set	101
   312                           	DABS	1,12,1	;_CCP1IF
   313                           
   314                           	global	_CCP1M0
   315  00A8                     _CCP1M0	set	168
   316                           	DABS	1,21,1	;_CCP1M0
   317                           
   318                           	global	_CCP1M1
   319  00A9                     _CCP1M1	set	169
   320                           	DABS	1,21,1	;_CCP1M1
   321                           
   322                           	global	_CCP1M2
   323  00AA                     _CCP1M2	set	170
   324                           	DABS	1,21,1	;_CCP1M2
   325                           
   326                           	global	_CCP1M3
   327  00AB                     _CCP1M3	set	171
   328                           	DABS	1,21,1	;_CCP1M3
   329                           
   330                           	global	_CHS0
   331  00FA                     _CHS0	set	250
   332                           	DABS	1,31,1	;_CHS0
   333                           
   334                           	global	_CHS1
   335  00FB                     _CHS1	set	251
   336                           	DABS	1,31,1	;_CHS1
   337                           
   338                           	global	_CHS2
   339  00FC                     _CHS2	set	252
   340                           	DABS	1,31,1	;_CHS2
   341                           
   342                           	global	_CIS
   343  00CB                     _CIS	set	203
   344                           	DABS	1,25,1	;_CIS
   345                           
   346                           	global	_CKCNTI
   347  00D9                     _CKCNTI	set	217
   348                           	DABS	1,27,1	;_CKCNTI
   349                           
   350                           	global	_CKMAVG
   351  00DA                     _CKMAVG	set	218
   352                           	DABS	1,27,1	;_CKMAVG
   353                           
   354                           	global	_CKMEAIF
   355  0066                     _CKMEAIF	set	102
   356                           	DABS	1,12,1	;_CKMEAIF
   357                           
   358                           	global	_CM0
   359  00C8                     _CM0	set	200
   360                           	DABS	1,25,1	;_CM0
   361                           
   362                           	global	_CM1
   363  00C9                     _CM1	set	201
   364                           	DABS	1,25,1	;_CM1
   365                           
   366                           	global	_CM2
   367  00CA                     _CM2	set	202
   368                           	DABS	1,25,1	;_CM2
   369                           
   370                           	global	_DC
   371  0019                     _DC	set	25
   372                           	DABS	1,3,1	;_DC
   373                           
   374                           	global	_DC1B0
   375  00AC                     _DC1B0	set	172
   376                           	DABS	1,21,1	;_DC1B0
   377                           
   378                           	global	_DC1B1
   379  00AD                     _DC1B1	set	173
   380                           	DABS	1,21,1	;_DC1B1
   381                           
   382                           	global	_ECCPAS0
   383  00BC                     _ECCPAS0	set	188
   384                           	DABS	1,23,1	;_ECCPAS0
   385                           
   386                           	global	_ECCPAS1
   387  00BD                     _ECCPAS1	set	189
   388                           	DABS	1,23,1	;_ECCPAS1
   389                           
   390                           	global	_ECCPAS2
   391  00BE                     _ECCPAS2	set	190
   392                           	DABS	1,23,1	;_ECCPAS2
   393                           
   394                           	global	_ECCPASE
   395  00BF                     _ECCPASE	set	191
   396                           	DABS	1,23,1	;_ECCPASE
   397                           
   398                           	global	_ECCPIF
   399  0065                     _ECCPIF	set	101
   400                           	DABS	1,12,1	;_ECCPIF
   401                           
   402                           	global	_EEIF
   403  0067                     _EEIF	set	103
   404                           	DABS	1,12,1	;_EEIF
   405                           
   406                           	global	_GIE
   407  005F                     _GIE	set	95
   408                           	DABS	1,11,1	;_GIE
   409                           
   410                           	global	_GO
   411  00F9                     _GO	set	249
   412                           	DABS	1,31,1	;_GO
   413                           
   414                           	global	_GO_DONE
   415  00F9                     _GO_DONE	set	249
   416                           	DABS	1,31,1	;_GO_DONE
   417                           
   418                           	global	_GO_nDONE
   419  00F9                     _GO_nDONE	set	249
   420                           	DABS	1,31,1	;_GO_nDONE
   421                           
   422                           	global	_HC
   423  0019                     _HC	set	25
   424                           	DABS	1,3,1	;_HC
   425                           
   426                           	global	_INTE
   427  005C                     _INTE	set	92
   428                           	DABS	1,11,1	;_INTE
   429                           
   430                           	global	_INTF
   431  0059                     _INTF	set	89
   432                           	DABS	1,11,1	;_INTF
   433                           
   434                           	global	_IRP
   435  001F                     _IRP	set	31
   436                           	DABS	1,3,1	;_IRP
   437                           
   438                           	global	_OSFIF
   439  0062                     _OSFIF	set	98
   440                           	DABS	1,12,1	;_OSFIF
   441                           
   442                           	global	_P1M0
   443  00AE                     _P1M0	set	174
   444                           	DABS	1,21,1	;_P1M0
   445                           
   446                           	global	_P1M1
   447  00AF                     _P1M1	set	175
   448                           	DABS	1,21,1	;_P1M1
   449                           
   450                           	global	_PA0
   451  0028                     _PA0	set	40
   452                           	DABS	1,5,1	;_PA0
   453                           
   454                           	global	_PA1
   455  0029                     _PA1	set	41
   456                           	DABS	1,5,1	;_PA1
   457                           
   458                           	global	_PA2
   459  002A                     _PA2	set	42
   460                           	DABS	1,5,1	;_PA2
   461                           
   462                           	global	_PA3
   463  002B                     _PA3	set	43
   464                           	DABS	1,5,1	;_PA3
   465                           
   466                           	global	_PA4
   467  002C                     _PA4	set	44
   468                           	DABS	1,5,1	;_PA4
   469                           
   470                           	global	_PA5
   471  002D                     _PA5	set	45
   472                           	DABS	1,5,1	;_PA5
   473                           
   474                           	global	_PAGE
   475  001D                     _PAGE	set	29
   476                           	DABS	1,3,1	;_PAGE
   477                           
   478                           	global	_PAIE
   479  005B                     _PAIE	set	91
   480                           	DABS	1,11,1	;_PAIE
   481                           
   482                           	global	_PAIF
   483  0058                     _PAIF	set	88
   484                           	DABS	1,11,1	;_PAIF
   485                           
   486                           	global	_PDC0
   487  00B0                     _PDC0	set	176
   488                           	DABS	1,22,1	;_PDC0
   489                           
   490                           	global	_PDC1
   491  00B1                     _PDC1	set	177
   492                           	DABS	1,22,1	;_PDC1
   493                           
   494                           	global	_PDC2
   495  00B2                     _PDC2	set	178
   496                           	DABS	1,22,1	;_PDC2
   497                           
   498                           	global	_PDC3
   499  00B3                     _PDC3	set	179
   500                           	DABS	1,22,1	;_PDC3
   501                           
   502                           	global	_PDC4
   503  00B4                     _PDC4	set	180
   504                           	DABS	1,22,1	;_PDC4
   505                           
   506                           	global	_PDC5
   507  00B5                     _PDC5	set	181
   508                           	DABS	1,22,1	;_PDC5
   509                           
   510                           	global	_PDC6
   511  00B6                     _PDC6	set	182
   512                           	DABS	1,22,1	;_PDC6
   513                           
   514                           	global	_PEIE
   515  005E                     _PEIE	set	94
   516                           	DABS	1,11,1	;_PEIE
   517                           
   518                           	global	_PRSEN
   519  00B7                     _PRSEN	set	183
   520                           	DABS	1,22,1	;_PRSEN
   521                           
   522                           	global	_PSSAC0
   523  00BA                     _PSSAC0	set	186
   524                           	DABS	1,23,1	;_PSSAC0
   525                           
   526                           	global	_PSSAC1
   527  00BB                     _PSSAC1	set	187
   528                           	DABS	1,23,1	;_PSSAC1
   529                           
   530                           	global	_PSSBD0
   531  00B8                     _PSSBD0	set	184
   532                           	DABS	1,23,1	;_PSSBD0
   533                           
   534                           	global	_PSSBD1
   535  00B9                     _PSSBD1	set	185
   536                           	DABS	1,23,1	;_PSSBD1
   537                           
   538                           	global	_RA0
   539  0028                     _RA0	set	40
   540                           	DABS	1,5,1	;_RA0
   541                           
   542                           	global	_RA1
   543  0029                     _RA1	set	41
   544                           	DABS	1,5,1	;_RA1
   545                           
   546                           	global	_RA2
   547  002A                     _RA2	set	42
   548                           	DABS	1,5,1	;_RA2
   549                           
   550                           	global	_RA3
   551  002B                     _RA3	set	43
   552                           	DABS	1,5,1	;_RA3
   553                           
   554                           	global	_RA4
   555  002C                     _RA4	set	44
   556                           	DABS	1,5,1	;_RA4
   557                           
   558                           	global	_RA5
   559  002D                     _RA5	set	45
   560                           	DABS	1,5,1	;_RA5
   561                           
   562                           	global	_RAIE
   563  005B                     _RAIE	set	91
   564                           	DABS	1,11,1	;_RAIE
   565                           
   566                           	global	_RAIF
   567  0058                     _RAIF	set	88
   568                           	DABS	1,11,1	;_RAIF
   569                           
   570                           	global	_RC0
   571  0038                     _RC0	set	56
   572                           	DABS	1,7,1	;_RC0
   573                           
   574                           	global	_RC1
   575  0039                     _RC1	set	57
   576                           	DABS	1,7,1	;_RC1
   577                           
   578                           	global	_RC2
   579  003A                     _RC2	set	58
   580                           	DABS	1,7,1	;_RC2
   581                           
   582                           	global	_RC3
   583  003B                     _RC3	set	59
   584                           	DABS	1,7,1	;_RC3
   585                           
   586                           	global	_RC4
   587  003C                     _RC4	set	60
   588                           	DABS	1,7,1	;_RC4
   589                           
   590                           	global	_RC5
   591  003D                     _RC5	set	61
   592                           	DABS	1,7,1	;_RC5
   593                           
   594                           	global	_RP
   595  001D                     _RP	set	29
   596                           	DABS	1,3,1	;_RP
   597                           
   598                           	global	_RP0
   599  001D                     _RP0	set	29
   600                           	DABS	1,3,1	;_RP0
   601                           
   602                           	global	_RP1
   603  001E                     _RP1	set	30
   604                           	DABS	1,3,1	;_RP1
   605                           
   606                           	global	_SLVREN
   607  00DC                     _SLVREN	set	220
   608                           	DABS	1,27,1	;_SLVREN
   609                           
   610                           	global	_SWDTEN
   611  00C0                     _SWDTEN	set	192
   612                           	DABS	1,24,1	;_SWDTEN
   613                           
   614                           	global	_T0IE
   615  005D                     _T0IE	set	93
   616                           	DABS	1,11,1	;_T0IE
   617                           
   618                           	global	_T0IF
   619  005A                     _T0IF	set	90
   620                           	DABS	1,11,1	;_T0IF
   621                           
   622                           	global	_T1CKPS0
   623  0084                     _T1CKPS0	set	132
   624                           	DABS	1,16,1	;_T1CKPS0
   625                           
   626                           	global	_T1CKPS1
   627  0085                     _T1CKPS1	set	133
   628                           	DABS	1,16,1	;_T1CKPS1
   629                           
   630                           	global	_T1GINV
   631  0087                     _T1GINV	set	135
   632                           	DABS	1,16,1	;_T1GINV
   633                           
   634                           	global	_T1GSS
   635  00D1                     _T1GSS	set	209
   636                           	DABS	1,26,1	;_T1GSS
   637                           
   638                           	global	_T1IF
   639  0060                     _T1IF	set	96
   640                           	DABS	1,12,1	;_T1IF
   641                           
   642                           	global	_T1OSCEN
   643  0083                     _T1OSCEN	set	131
   644                           	DABS	1,16,1	;_T1OSCEN
   645                           
   646                           	global	_T2CKPS0
   647  0090                     _T2CKPS0	set	144
   648                           	DABS	1,18,1	;_T2CKPS0
   649                           
   650                           	global	_T2CKPS1
   651  0091                     _T2CKPS1	set	145
   652                           	DABS	1,18,1	;_T2CKPS1
   653                           
   654                           	global	_T2IF
   655  0061                     _T2IF	set	97
   656                           	DABS	1,12,1	;_T2IF
   657                           
   658                           	global	_TMR0IE
   659  005D                     _TMR0IE	set	93
   660                           	DABS	1,11,1	;_TMR0IE
   661                           
   662                           	global	_TMR0IF
   663  005A                     _TMR0IF	set	90
   664                           	DABS	1,11,1	;_TMR0IF
   665                           
   666                           	global	_TMR1CS
   667  0081                     _TMR1CS	set	129
   668                           	DABS	1,16,1	;_TMR1CS
   669                           
   670                           	global	_TMR1GE
   671  0086                     _TMR1GE	set	134
   672                           	DABS	1,16,1	;_TMR1GE
   673                           
   674                           	global	_TMR1IF
   675  0060                     _TMR1IF	set	96
   676                           	DABS	1,12,1	;_TMR1IF
   677                           
   678                           	global	_TMR1ON
   679  0080                     _TMR1ON	set	128
   680                           	DABS	1,16,1	;_TMR1ON
   681                           
   682                           	global	_TMR2IF
   683  0061                     _TMR2IF	set	97
   684                           	DABS	1,12,1	;_TMR2IF
   685                           
   686                           	global	_TMR2ON
   687  0092                     _TMR2ON	set	146
   688                           	DABS	1,18,1	;_TMR2ON
   689                           
   690                           	global	_TOUTPS0
   691  0093                     _TOUTPS0	set	147
   692                           	DABS	1,18,1	;_TOUTPS0
   693                           
   694                           	global	_TOUTPS1
   695  0094                     _TOUTPS1	set	148
   696                           	DABS	1,18,1	;_TOUTPS1
   697                           
   698                           	global	_TOUTPS2
   699  0095                     _TOUTPS2	set	149
   700                           	DABS	1,18,1	;_TOUTPS2
   701                           
   702                           	global	_TOUTPS3
   703  0096                     _TOUTPS3	set	150
   704                           	DABS	1,18,1	;_TOUTPS3
   705                           
   706                           	global	_VCFG
   707  00FE                     _VCFG	set	254
   708                           	DABS	1,31,1	;_VCFG
   709                           
   710                           	global	_WDTPS0
   711  00C1                     _WDTPS0	set	193
   712                           	DABS	1,24,1	;_WDTPS0
   713                           
   714                           	global	_WDTPS1
   715  00C2                     _WDTPS1	set	194
   716                           	DABS	1,24,1	;_WDTPS1
   717                           
   718                           	global	_WDTPS2
   719  00C3                     _WDTPS2	set	195
   720                           	DABS	1,24,1	;_WDTPS2
   721                           
   722                           	global	_WDTPS3
   723  00C4                     _WDTPS3	set	196
   724                           	DABS	1,24,1	;_WDTPS3
   725                           
   726                           	global	_Z
   727  001A                     _Z	set	26
   728                           	DABS	1,3,1	;_Z
   729                           
   730                           	global	_ZERO
   731  001A                     _ZERO	set	26
   732                           	DABS	1,3,1	;_ZERO
   733                           
   734                           	global	_nDONE
   735  00F9                     _nDONE	set	249
   736                           	DABS	1,31,1	;_nDONE
   737                           
   738                           	global	_nPD
   739  001B                     _nPD	set	27
   740                           	DABS	1,3,1	;_nPD
   741                           
   742                           	global	_nPF
   743  001B                     _nPF	set	27
   744                           	DABS	1,3,1	;_nPF
   745                           
   746                           	global	_nT1SYNC
   747  0082                     _nT1SYNC	set	130
   748                           	DABS	1,16,1	;_nT1SYNC
   749                           
   750                           	global	_nTF
   751  001C                     _nTF	set	28
   752                           	DABS	1,3,1	;_nTF
   753                           
   754                           	global	_nTO
   755  001C                     _nTO	set	28
   756                           	DABS	1,3,1	;_nTO
   757                           
   758                           	global	_OPTION
   759  0081                     _OPTION	set	129
   760                           	DABS	1,129,1	;_OPTION
   761                           
   762                           	global	_SFR80
   763  0080                     _SFR80	set	128
   764                           	DABS	1,128,1	;_SFR80
   765                           
   766                           	global	_ADCON1
   767  009F                     _ADCON1	set	159
   768                           	DABS	1,159,1	;_ADCON1
   769                           
   770                           	global	_ADRESL
   771  009E                     _ADRESL	set	158
   772                           	DABS	1,158,1	;_ADRESL
   773                           
   774                           	global	_ANSEL
   775  0091                     _ANSEL	set	145
   776                           	DABS	1,145,1	;_ANSEL
   777                           
   778                           	global	_EECON1bits
   779  009C                     _EECON1bits	set	156
   780                           	DABS	1,156,1	;_EECON1bits
   781                           
   782                           	global	_EECON2bits
   783  009D                     _EECON2bits	set	157
   784                           	DABS	1,157,1	;_EECON2bits
   785                           
   786                           	global	_EEDATA
   787  009A                     _EEDATA	set	154
   788                           	DABS	1,154,1	;_EEDATA
   789                           
   790                           	global	_IOC
   791  0096                     _IOC	set	150
   792                           	DABS	1,150,1	;_IOC
   793                           
   794                           	global	_IOCAbits
   795  0096                     _IOCAbits	set	150
   796                           	DABS	1,150,1	;_IOCAbits
   797                           
   798                           	global	_OPTION_REG
   799  0081                     _OPTION_REG	set	129
   800                           	DABS	1,129,1	;_OPTION_REG
   801                           
   802                           	global	_OPTIONbits
   803  0081                     _OPTIONbits	set	129
   804                           	DABS	1,129,1	;_OPTIONbits
   805                           
   806                           	global	_OSCCONbits
   807  008F                     _OSCCONbits	set	143
   808                           	DABS	1,143,1	;_OSCCONbits
   809                           
   810                           	global	_OSCTUNE
   811  0090                     _OSCTUNE	set	144
   812                           	DABS	1,144,1	;_OSCTUNE
   813                           
   814                           	global	_PCONbits
   815  008E                     _PCONbits	set	142
   816                           	DABS	1,142,1	;_PCONbits
   817                           
   818                           	global	_PIE1bits
   819  008C                     _PIE1bits	set	140
   820                           	DABS	1,140,1	;_PIE1bits
   821                           
   822                           	global	_SFR81
   823  0081                     _SFR81	set	129
   824                           	DABS	1,129,1	;_SFR81
   825                           
   826                           	global	_SFR85
   827  0085                     _SFR85	set	133
   828                           	DABS	1,133,1	;_SFR85
   829                           
   830                           	global	_SFR8C
   831  008C                     _SFR8C	set	140
   832                           	DABS	1,140,1	;_SFR8C
   833                           
   834                           	global	_SFR8E
   835  008E                     _SFR8E	set	142
   836                           	DABS	1,142,1	;_SFR8E
   837                           
   838                           	global	_SFR8F
   839  008F                     _SFR8F	set	143
   840                           	DABS	1,143,1	;_SFR8F
   841                           
   842                           	global	_SFR92
   843  0092                     _SFR92	set	146
   844                           	DABS	1,146,1	;_SFR92
   845                           
   846                           	global	_SFR95
   847  0095                     _SFR95	set	149
   848                           	DABS	1,149,1	;_SFR95
   849                           
   850                           	global	_SFR96
   851  0096                     _SFR96	set	150
   852                           	DABS	1,150,1	;_SFR96
   853                           
   854                           	global	_SFR9A
   855  009A                     _SFR9A	set	154
   856                           	DABS	1,154,1	;_SFR9A
   857                           
   858                           	global	_SFR9B
   859  009B                     _SFR9B	set	155
   860                           	DABS	1,155,1	;_SFR9B
   861                           
   862                           	global	_SFR9C
   863  009C                     _SFR9C	set	156
   864                           	DABS	1,156,1	;_SFR9C
   865                           
   866                           	global	_SFR9D
   867  009D                     _SFR9D	set	157
   868                           	DABS	1,157,1	;_SFR9D
   869                           
   870                           	global	_TRISAbits
   871  0085                     _TRISAbits	set	133
   872                           	DABS	1,133,1	;_TRISAbits
   873                           
   874                           	global	_TRISC
   875  0087                     _TRISC	set	135
   876                           	DABS	1,135,1	;_TRISC
   877                           
   878                           	global	_VRCON
   879  0099                     _VRCON	set	153
   880                           	DABS	1,153,1	;_VRCON
   881                           
   882                           	global	_WPU
   883  0095                     _WPU	set	149
   884                           	DABS	1,149,1	;_WPU
   885                           
   886                           	global	_WPUAbits
   887  0095                     _WPUAbits	set	149
   888                           	DABS	1,149,1	;_WPUAbits
   889                           
   890                           	global	_ADCS0
   891  04FC                     _ADCS0	set	1276
   892                           	DABS	1,159,1	;_ADCS0
   893                           
   894                           	global	_ADCS1
   895  04FD                     _ADCS1	set	1277
   896                           	DABS	1,159,1	;_ADCS1
   897                           
   898                           	global	_ADCS2
   899  04FE                     _ADCS2	set	1278
   900                           	DABS	1,159,1	;_ADCS2
   901                           
   902                           	global	_ADIE
   903  0466                     _ADIE	set	1126
   904                           	DABS	1,140,1	;_ADIE
   905                           
   906                           	global	_ANS0
   907  0488                     _ANS0	set	1160
   908                           	DABS	1,145,1	;_ANS0
   909                           
   910                           	global	_ANS1
   911  0489                     _ANS1	set	1161
   912                           	DABS	1,145,1	;_ANS1
   913                           
   914                           	global	_ANS2
   915  048A                     _ANS2	set	1162
   916                           	DABS	1,145,1	;_ANS2
   917                           
   918                           	global	_ANS3
   919  048B                     _ANS3	set	1163
   920                           	DABS	1,145,1	;_ANS3
   921                           
   922                           	global	_ANS4
   923  048C                     _ANS4	set	1164
   924                           	DABS	1,145,1	;_ANS4
   925                           
   926                           	global	_ANS5
   927  048D                     _ANS5	set	1165
   928                           	DABS	1,145,1	;_ANS5
   929                           
   930                           	global	_ANS6
   931  048E                     _ANS6	set	1166
   932                           	DABS	1,145,1	;_ANS6
   933                           
   934                           	global	_ANS7
   935  048F                     _ANS7	set	1167
   936                           	DABS	1,145,1	;_ANS7
   937                           
   938                           	global	_C1IE
   939  0463                     _C1IE	set	1123
   940                           	DABS	1,140,1	;_C1IE
   941                           
   942                           	global	_C2IE
   943  0464                     _C2IE	set	1124
   944                           	DABS	1,140,1	;_C2IE
   945                           
   946                           	global	_CCP1IE
   947  0465                     _CCP1IE	set	1125
   948                           	DABS	1,140,1	;_CCP1IE
   949                           
   950                           	global	_CKMEAIE
   951  0466                     _CKMEAIE	set	1126
   952                           	DABS	1,140,1	;_CKMEAIE
   953                           
   954                           	global	_ECCPIE
   955  0465                     _ECCPIE	set	1125
   956                           	DABS	1,140,1	;_ECCPIE
   957                           
   958                           	global	_EEIE
   959  0467                     _EEIE	set	1127
   960                           	DABS	1,140,1	;_EEIE
   961                           
   962                           	global	_HFIOFR
   963  047A                     _HFIOFR	set	1146
   964                           	DABS	1,143,1	;_HFIOFR
   965                           
   966                           	global	_HTS
   967  047A                     _HTS	set	1146
   968                           	DABS	1,143,1	;_HTS
   969                           
   970                           	global	_INTEDG
   971  040E                     _INTEDG	set	1038
   972                           	DABS	1,129,1	;_INTEDG
   973                           
   974                           	global	_IOC0
   975  04B0                     _IOC0	set	1200
   976                           	DABS	1,150,1	;_IOC0
   977                           
   978                           	global	_IOC1
   979  04B1                     _IOC1	set	1201
   980                           	DABS	1,150,1	;_IOC1
   981                           
   982                           	global	_IOC2
   983  04B2                     _IOC2	set	1202
   984                           	DABS	1,150,1	;_IOC2
   985                           
   986                           	global	_IOC3
   987  04B3                     _IOC3	set	1203
   988                           	DABS	1,150,1	;_IOC3
   989                           
   990                           	global	_IOC4
   991  04B4                     _IOC4	set	1204
   992                           	DABS	1,150,1	;_IOC4
   993                           
   994                           	global	_IOC5
   995  04B5                     _IOC5	set	1205
   996                           	DABS	1,150,1	;_IOC5
   997                           
   998                           	global	_IOCA0
   999  04B0                     _IOCA0	set	1200
  1000                           	DABS	1,150,1	;_IOCA0
  1001                           
  1002                           	global	_IOCA1
  1003  04B1                     _IOCA1	set	1201
  1004                           	DABS	1,150,1	;_IOCA1
  1005                           
  1006                           	global	_IOCA2
  1007  04B2                     _IOCA2	set	1202
  1008                           	DABS	1,150,1	;_IOCA2
  1009                           
  1010                           	global	_IOCA3
  1011  04B3                     _IOCA3	set	1203
  1012                           	DABS	1,150,1	;_IOCA3
  1013                           
  1014                           	global	_IOCA4
  1015  04B4                     _IOCA4	set	1204
  1016                           	DABS	1,150,1	;_IOCA4
  1017                           
  1018                           	global	_IOCA5
  1019  04B5                     _IOCA5	set	1205
  1020                           	DABS	1,150,1	;_IOCA5
  1021                           
  1022                           	global	_IRCF0
  1023  047C                     _IRCF0	set	1148
  1024                           	DABS	1,143,1	;_IRCF0
  1025                           
  1026                           	global	_IRCF1
  1027  047D                     _IRCF1	set	1149
  1028                           	DABS	1,143,1	;_IRCF1
  1029                           
  1030                           	global	_IRCF2
  1031  047E                     _IRCF2	set	1150
  1032                           	DABS	1,143,1	;_IRCF2
  1033                           
  1034                           	global	_LFIOFR
  1035  0479                     _LFIOFR	set	1145
  1036                           	DABS	1,143,1	;_LFIOFR
  1037                           
  1038                           	global	_LFMOD
  1039  047F                     _LFMOD	set	1151
  1040                           	DABS	1,143,1	;_LFMOD
  1041                           
  1042                           	global	_LTS
  1043  0479                     _LTS	set	1145
  1044                           	DABS	1,143,1	;_LTS
  1045                           
  1046                           	global	_OSFIE
  1047  0462                     _OSFIE	set	1122
  1048                           	DABS	1,140,1	;_OSFIE
  1049                           
  1050                           	global	_OSTS
  1051  047B                     _OSTS	set	1147
  1052                           	DABS	1,143,1	;_OSTS
  1053                           
  1054                           	global	_PS0
  1055  0408                     _PS0	set	1032
  1056                           	DABS	1,129,1	;_PS0
  1057                           
  1058                           	global	_PS1
  1059  0409                     _PS1	set	1033
  1060                           	DABS	1,129,1	;_PS1
  1061                           
  1062                           	global	_PS2
  1063  040A                     _PS2	set	1034
  1064                           	DABS	1,129,1	;_PS2
  1065                           
  1066                           	global	_PSA
  1067  040B                     _PSA	set	1035
  1068                           	DABS	1,129,1	;_PSA
  1069                           
  1070                           	global	_RD
  1071  04E0                     _RD	set	1248
  1072                           	DABS	1,156,1	;_RD
  1073                           
  1074                           	global	_SBODEN
  1075  0474                     _SBODEN	set	1140
  1076                           	DABS	1,142,1	;_SBODEN
  1077                           
  1078                           	global	_SBOREN
  1079  0474                     _SBOREN	set	1140
  1080                           	DABS	1,142,1	;_SBOREN
  1081                           
  1082                           	global	_SCS
  1083  0478                     _SCS	set	1144
  1084                           	DABS	1,143,1	;_SCS
  1085                           
  1086                           	global	_T0CS
  1087  040D                     _T0CS	set	1037
  1088                           	DABS	1,129,1	;_T0CS
  1089                           
  1090                           	global	_T0SE
  1091  040C                     _T0SE	set	1036
  1092                           	DABS	1,129,1	;_T0SE
  1093                           
  1094                           	global	_T1IE
  1095  0460                     _T1IE	set	1120
  1096                           	DABS	1,140,1	;_T1IE
  1097                           
  1098                           	global	_T2IE
  1099  0461                     _T2IE	set	1121
  1100                           	DABS	1,140,1	;_T2IE
  1101                           
  1102                           	global	_TMR1IE
  1103  0460                     _TMR1IE	set	1120
  1104                           	DABS	1,140,1	;_TMR1IE
  1105                           
  1106                           	global	_TMR2IE
  1107  0461                     _TMR2IE	set	1121
  1108                           	DABS	1,140,1	;_TMR2IE
  1109                           
  1110                           	global	_TRISA0
  1111  0428                     _TRISA0	set	1064
  1112                           	DABS	1,133,1	;_TRISA0
  1113                           
  1114                           	global	_TRISA1
  1115  0429                     _TRISA1	set	1065
  1116                           	DABS	1,133,1	;_TRISA1
  1117                           
  1118                           	global	_TRISA2
  1119  042A                     _TRISA2	set	1066
  1120                           	DABS	1,133,1	;_TRISA2
  1121                           
  1122                           	global	_TRISA3
  1123  042B                     _TRISA3	set	1067
  1124                           	DABS	1,133,1	;_TRISA3
  1125                           
  1126                           	global	_TRISA4
  1127  042C                     _TRISA4	set	1068
  1128                           	DABS	1,133,1	;_TRISA4
  1129                           
  1130                           	global	_TRISA5
  1131  042D                     _TRISA5	set	1069
  1132                           	DABS	1,133,1	;_TRISA5
  1133                           
  1134                           	global	_TRISC0
  1135  0438                     _TRISC0	set	1080
  1136                           	DABS	1,135,1	;_TRISC0
  1137                           
  1138                           	global	_TRISC1
  1139  0439                     _TRISC1	set	1081
  1140                           	DABS	1,135,1	;_TRISC1
  1141                           
  1142                           	global	_TRISC2
  1143  043A                     _TRISC2	set	1082
  1144                           	DABS	1,135,1	;_TRISC2
  1145                           
  1146                           	global	_TRISC3
  1147  043B                     _TRISC3	set	1083
  1148                           	DABS	1,135,1	;_TRISC3
  1149                           
  1150                           	global	_TRISC4
  1151  043C                     _TRISC4	set	1084
  1152                           	DABS	1,135,1	;_TRISC4
  1153                           
  1154                           	global	_TRISC5
  1155  043D                     _TRISC5	set	1085
  1156                           	DABS	1,135,1	;_TRISC5
  1157                           
  1158                           	global	_TUN0
  1159  0480                     _TUN0	set	1152
  1160                           	DABS	1,144,1	;_TUN0
  1161                           
  1162                           	global	_TUN1
  1163  0481                     _TUN1	set	1153
  1164                           	DABS	1,144,1	;_TUN1
  1165                           
  1166                           	global	_TUN2
  1167  0482                     _TUN2	set	1154
  1168                           	DABS	1,144,1	;_TUN2
  1169                           
  1170                           	global	_TUN3
  1171  0483                     _TUN3	set	1155
  1172                           	DABS	1,144,1	;_TUN3
  1173                           
  1174                           	global	_TUN4
  1175  0484                     _TUN4	set	1156
  1176                           	DABS	1,144,1	;_TUN4
  1177                           
  1178                           	global	_ULPWUE
  1179  0475                     _ULPWUE	set	1141
  1180                           	DABS	1,142,1	;_ULPWUE
  1181                           
  1182                           	global	_VR0
  1183  04C8                     _VR0	set	1224
  1184                           	DABS	1,153,1	;_VR0
  1185                           
  1186                           	global	_VR1
  1187  04C9                     _VR1	set	1225
  1188                           	DABS	1,153,1	;_VR1
  1189                           
  1190                           	global	_VR2
  1191  04CA                     _VR2	set	1226
  1192                           	DABS	1,153,1	;_VR2
  1193                           
  1194                           	global	_VR3
  1195  04CB                     _VR3	set	1227
  1196                           	DABS	1,153,1	;_VR3
  1197                           
  1198                           	global	_VREN
  1199  04CF                     _VREN	set	1231
  1200                           	DABS	1,153,1	;_VREN
  1201                           
  1202                           	global	_VRR
  1203  04CD                     _VRR	set	1229
  1204                           	DABS	1,153,1	;_VRR
  1205                           
  1206                           	global	_WPU0
  1207  04A8                     _WPU0	set	1192
  1208                           	DABS	1,149,1	;_WPU0
  1209                           
  1210                           	global	_WPU1
  1211  04A9                     _WPU1	set	1193
  1212                           	DABS	1,149,1	;_WPU1
  1213                           
  1214                           	global	_WPU2
  1215  04AA                     _WPU2	set	1194
  1216                           	DABS	1,149,1	;_WPU2
  1217                           
  1218                           	global	_WPU4
  1219  04AC                     _WPU4	set	1196
  1220                           	DABS	1,149,1	;_WPU4
  1221                           
  1222                           	global	_WPU5
  1223  04AD                     _WPU5	set	1197
  1224                           	DABS	1,149,1	;_WPU5
  1225                           
  1226                           	global	_WPUA0
  1227  04A8                     _WPUA0	set	1192
  1228                           	DABS	1,149,1	;_WPUA0
  1229                           
  1230                           	global	_WPUA1
  1231  04A9                     _WPUA1	set	1193
  1232                           	DABS	1,149,1	;_WPUA1
  1233                           
  1234                           	global	_WPUA2
  1235  04AA                     _WPUA2	set	1194
  1236                           	DABS	1,149,1	;_WPUA2
  1237                           
  1238                           	global	_WPUA4
  1239  04AC                     _WPUA4	set	1196
  1240                           	DABS	1,149,1	;_WPUA4
  1241                           
  1242                           	global	_WPUA5
  1243  04AD                     _WPUA5	set	1197
  1244                           	DABS	1,149,1	;_WPUA5
  1245                           
  1246                           	global	_WR
  1247  04E8                     _WR	set	1256
  1248                           	DABS	1,157,1	;_WR
  1249                           
  1250                           	global	_WREN
  1251  04E2                     _WREN	set	1250
  1252                           	DABS	1,156,1	;_WREN
  1253                           
  1254                           	global	_WREN1
  1255  04E2                     _WREN1	set	1250
  1256                           	DABS	1,156,1	;_WREN1
  1257                           
  1258                           	global	_WREN2
  1259  04E4                     _WREN2	set	1252
  1260                           	DABS	1,156,1	;_WREN2
  1261                           
  1262                           	global	_WREN3
  1263  04E5                     _WREN3	set	1253
  1264                           	DABS	1,156,1	;_WREN3
  1265                           
  1266                           	global	_WRERR
  1267  04E3                     _WRERR	set	1251
  1268                           	DABS	1,156,1	;_WRERR
  1269                           
  1270                           	global	_nBOD
  1271  0470                     _nBOD	set	1136
  1272                           	DABS	1,142,1	;_nBOD
  1273                           
  1274                           	global	_nBOR
  1275  0470                     _nBOR	set	1136
  1276                           	DABS	1,142,1	;_nBOR
  1277                           
  1278                           	global	_nPAPU
  1279  040F                     _nPAPU	set	1039
  1280                           	DABS	1,129,1	;_nPAPU
  1281                           
  1282                           	global	_nPOR
  1283  0471                     _nPOR	set	1137
  1284                           	DABS	1,142,1	;_nPOR
  1285                           
  1286                           	global	_nRAPU
  1287  040F                     _nRAPU	set	1039
  1288                           	DABS	1,129,1	;_nRAPU
  1289                           
  1290                           	global	_INTCON
  1291  000B                     _INTCON	set	11
  1292                           	DABS	1,11,1	;_INTCON
  1293                           
  1294                           	global	_PIR1
  1295  000C                     _PIR1	set	12
  1296                           	DABS	1,12,1	;_PIR1
  1297                           
  1298                           	global	_SFR0D
  1299  000D                     _SFR0D	set	13
  1300                           	DABS	1,13,1	;_SFR0D
  1301                           
  1302                           	global	_SFR0E
  1303  000E                     _SFR0E	set	14
  1304                           	DABS	1,14,1	;_SFR0E
  1305                           
  1306                           	global	_SFR0F
  1307  000F                     _SFR0F	set	15
  1308                           	DABS	1,15,1	;_SFR0F
  1309                           
  1310                           	global	_SFR10
  1311  0010                     _SFR10	set	16
  1312                           	DABS	1,16,1	;_SFR10
  1313                           
  1314                           	global	_TMR2
  1315  0011                     _TMR2	set	17
  1316                           	DABS	1,17,1	;_TMR2
  1317                           
  1318                           	global	_SFR13
  1319  0013                     _SFR13	set	19
  1320                           	DABS	1,19,1	;_SFR13
  1321                           
  1322                           	global	_SFR14
  1323  0014                     _SFR14	set	20
  1324                           	DABS	1,20,1	;_SFR14
  1325                           
  1326                           	global	_SFR15
  1327  0015                     _SFR15	set	21
  1328                           	DABS	1,21,1	;_SFR15
  1329                           
  1330                           	global	_SFR16
  1331  0016                     _SFR16	set	22
  1332                           	DABS	1,22,1	;_SFR16
  1333                           
  1334                           	global	_SFR17
  1335  0017                     _SFR17	set	23
  1336                           	DABS	1,23,1	;_SFR17
  1337                           
  1338                           	global	_T2CON
  1339  0012                     _T2CON	set	18
  1340                           	DABS	1,18,1	;_T2CON
  1341                           
  1342                           	global	_WDTCON
  1343  0018                     _WDTCON	set	24
  1344                           	DABS	1,24,1	;_WDTCON
  1345                           
  1346                           	global	_MSCKCON
  1347  001B                     _MSCKCON	set	27
  1348                           	DABS	1,27,1	;_MSCKCON
  1349                           
  1350                           	global	_SFR19
  1351  0019                     _SFR19	set	25
  1352                           	DABS	1,25,1	;_SFR19
  1353                           
  1354                           	global	_SFR1A
  1355  001A                     _SFR1A	set	26
  1356                           	DABS	1,26,1	;_SFR1A
  1357                           
  1358                           	global	_SFR1E
  1359  001E                     _SFR1E	set	30
  1360                           	DABS	1,30,1	;_SFR1E
  1361                           
  1362                           	global	_SFR1F
  1363  001F                     _SFR1F	set	31
  1364                           	DABS	1,31,1	;_SFR1F
  1365                           
  1366                           	global	_SOSCPRH
  1367  001D                     _SOSCPRH	set	29
  1368                           	DABS	1,29,1	;_SOSCPRH
  1369                           
  1370                           	global	_SOSCPRL
  1371  001C                     _SOSCPRL	set	28
  1372                           	DABS	1,28,1	;_SOSCPRL
  1373                           
  1374                           	global	_SFR82
  1375  0082                     _SFR82	set	130
  1376                           	DABS	1,130,1	;_SFR82
  1377                           
  1378                           	global	_SFR83
  1379  0083                     _SFR83	set	131
  1380                           	DABS	1,131,1	;_SFR83
  1381                           
  1382                           	global	_SFR84
  1383  0084                     _SFR84	set	132
  1384                           	DABS	1,132,1	;_SFR84
  1385                           
  1386                           	global	_TRISA
  1387  0085                     _TRISA	set	133
  1388                           	DABS	1,133,1	;_TRISA
  1389                           
  1390                           	global	_PIE1
  1391  008C                     _PIE1	set	140
  1392                           	DABS	1,140,1	;_PIE1
  1393                           
  1394                           	global	_SFR86
  1395  0086                     _SFR86	set	134
  1396                           	DABS	1,134,1	;_SFR86
  1397                           
  1398                           	global	_SFR87
  1399  0087                     _SFR87	set	135
  1400                           	DABS	1,135,1	;_SFR87
  1401                           
  1402                           	global	_SFR88
  1403  0088                     _SFR88	set	136
  1404                           	DABS	1,136,1	;_SFR88
  1405                           
  1406                           	global	_SFR89
  1407  0089                     _SFR89	set	137
  1408                           	DABS	1,137,1	;_SFR89
  1409                           
  1410                           	global	_SFR8A
  1411  008A                     _SFR8A	set	138
  1412                           	DABS	1,138,1	;_SFR8A
  1413                           
  1414                           	global	_SFR8B
  1415  008B                     _SFR8B	set	139
  1416                           	DABS	1,139,1	;_SFR8B
  1417                           
  1418                           	global	_PCON
  1419  008E                     _PCON	set	142
  1420                           	DABS	1,142,1	;_PCON
  1421                           
  1422                           	global	_SFR8D
  1423  008D                     _SFR8D	set	141
  1424                           	DABS	1,141,1	;_SFR8D
  1425                           
  1426                           	global	_OSCCON
  1427  008F                     _OSCCON	set	143
  1428                           	DABS	1,143,1	;_OSCCON
  1429                           
  1430                           	global	_PR2
  1431  0092                     _PR2	set	146
  1432                           	DABS	1,146,1	;_PR2
  1433                           
  1434                           	global	_SFR90
  1435  0090                     _SFR90	set	144
  1436                           	DABS	1,144,1	;_SFR90
  1437                           
  1438                           	global	_SFR91
  1439  0091                     _SFR91	set	145
  1440                           	DABS	1,145,1	;_SFR91
  1441                           
  1442                           	global	_SFR93
  1443  0093                     _SFR93	set	147
  1444                           	DABS	1,147,1	;_SFR93
  1445                           
  1446                           	global	_SFR94
  1447  0094                     _SFR94	set	148
  1448                           	DABS	1,148,1	;_SFR94
  1449                           
  1450                           	global	_WPUA
  1451  0095                     _WPUA	set	149
  1452                           	DABS	1,149,1	;_WPUA
  1453                           
  1454                           	global	_EEDAT
  1455  009A                     _EEDAT	set	154
  1456                           	DABS	1,154,1	;_EEDAT
  1457                           
  1458                           	global	_IOCA
  1459  0096                     _IOCA	set	150
  1460                           	DABS	1,150,1	;_IOCA
  1461                           
  1462                           	global	_SFR97
  1463  0097                     _SFR97	set	151
  1464                           	DABS	1,151,1	;_SFR97
  1465                           
  1466                           	global	_SFR98
  1467  0098                     _SFR98	set	152
  1468                           	DABS	1,152,1	;_SFR98
  1469                           
  1470                           	global	_SFR99
  1471  0099                     _SFR99	set	153
  1472                           	DABS	1,153,1	;_SFR99
  1473                           
  1474                           	global	_EEADR
  1475  009B                     _EEADR	set	155
  1476                           	DABS	1,155,1	;_EEADR
  1477                           
  1478                           	global	_EECON1
  1479  009C                     _EECON1	set	156
  1480                           	DABS	1,156,1	;_EECON1
  1481                           
  1482                           	global	_EECON2
  1483  009D                     _EECON2	set	157
  1484                           	DABS	1,157,1	;_EECON2
  1485                           
  1486                           	global	_SFR9E
  1487  009E                     _SFR9E	set	158
  1488                           	DABS	1,158,1	;_SFR9E
  1489                           
  1490                           	global	_SFR9F
  1491  009F                     _SFR9F	set	159
  1492                           	DABS	1,159,1	;_SFR9F
  1493                           
  1494                           	file	"ms80fx01_project.as"
  1495                           	line	#
  1496                           psect cinit,class=CODE,delta=2
  1497                           global start_initialization
  1498  0365                     start_initialization:
  1499                           
  1500                           psect	bssCOMMON,class=COMMON,space=1
  1501                           global __pbssCOMMON
  1502  0045                     __pbssCOMMON:
  1503  0045                     _flag_F:
  1504  0045                            ds      1
  1505                           
  1506                           psect	dataCOMMON,class=COMMON,space=1
  1507                           global __pdataCOMMON
  1508  0046                     __pdataCOMMON:
  1509                           	file	"MS80FX01_Project.c"
  1510  0046                     _flag_0:
  1511  0046                            ds      1
  1512                           
  1513                           ; Clear objects allocated to COMMON
  1514                           psect cinit,class=CODE,delta=2
  1515  0365  01C5               	clrf	((__pbssCOMMON)+0)&07Fh
  1516                           ; Initialize objects allocated to COMMON
  1517                           	global __pidataCOMMON
  1518                           psect cinit,class=CODE,delta=2
  1519  0366  2360               	fcall	__pidataCOMMON+0		;fetch initializer
  1520  0367  00C6               	movwf	__pdataCOMMON+0&07fh		
  1521                           psect cinit,class=CODE,delta=2
  1522                           global end_of_initialization
  1523                           
  1524                           ;End of C runtime variable initialization code
  1525                           
  1526  0368                     end_of_initialization:
  1527  0368  0183               clrf status
  1528  0369  2B6A               ljmp _main	;jump to C main() function
  1529                           psect	cstackCOMMON,class=COMMON,space=1
  1530                           global __pcstackCOMMON
  1531  0040                     __pcstackCOMMON:
  1532                           	global	?_key_Scan
  1533  0040                     ?_key_Scan:	; 0 bytes @ 0x0
  1534                           	global	?_Delay_xms
  1535  0040                     ?_Delay_xms:	; 0 bytes @ 0x0
  1536                           	global	?_Device_Memory_Init
  1537  0040                     ?_Device_Memory_Init:	; 0 bytes @ 0x0
  1538                           	global	??_Device_Memory_Init
  1539  0040                     ??_Device_Memory_Init:	; 0 bytes @ 0x0
  1540                           	global	?_IOPort_Init
  1541  0040                     ?_IOPort_Init:	; 0 bytes @ 0x0
  1542                           	global	??_IOPort_Init
  1543  0040                     ??_IOPort_Init:	; 0 bytes @ 0x0
  1544                           	global	?_main
  1545  0040                     ?_main:	; 0 bytes @ 0x0
  1546                           	global	?_Input_INPUT
  1547  0040                     ?_Input_INPUT:	; 0 bytes @ 0x0
  1548                           	global	?_Input_INHIGH
  1549  0040                     ?_Input_INHIGH:	; 0 bytes @ 0x0
  1550                           	global	?_Input_INLOW
  1551  0040                     ?_Input_INLOW:	; 0 bytes @ 0x0
  1552                           	global	Delay_xms@x
  1553  0040                     Delay_xms@x:	; 2 bytes @ 0x0
  1554  0040                     	ds	2
  1555                           	global	??_Delay_xms
  1556  0042                     ??_Delay_xms:	; 0 bytes @ 0x2
  1557  0042                     	ds	1
  1558                           	global	Delay_xms@i
  1559  0043                     Delay_xms@i:	; 2 bytes @ 0x3
  1560  0043                     	ds	2
  1561                           	global	??_key_Scan
  1562  0045                     ??_key_Scan:	; 0 bytes @ 0x5
  1563                           	global	??_main
  1564  0045                     ??_main:	; 0 bytes @ 0x5
  1565                           	global	??_Input_INPUT
  1566  0045                     ??_Input_INPUT:	; 0 bytes @ 0x5
  1567                           	global	??_Input_INHIGH
  1568  0045                     ??_Input_INHIGH:	; 0 bytes @ 0x5
  1569                           	global	??_Input_INLOW
  1570  0045                     ??_Input_INLOW:	; 0 bytes @ 0x5
  1571 ;;Data sizes: Strings 0, constant 0, data 1, bss 1, persistent 0 stack 0
  1572 ;;Auto spaces:   Size  Autos    Used
  1573 ;; COMMON          62      5       7
  1574                           
  1575 ;;
  1576 ;; Pointer list with targets:
  1577                           
  1578                           
  1579                           
  1580 ;;
  1581 ;; Critical Paths under _main in COMMON
  1582 ;;
  1583 ;;   _Input_INLOW->_Delay_xms
  1584 ;;   _Input_INHIGH->_Delay_xms
  1585 ;;   _Input_INPUT->_Delay_xms
  1586                           
  1587 ;;
  1588 ;;Main: autosize = 0, tempsize = 0, incstack = 0, save=0
  1589 ;;
  1590                           
  1591 ;;
  1592 ;;Call Graph Tables:
  1593 ;;
  1594 ;; ---------------------------------------------------------------------------------
  1595 ;; (Depth) Function   	        Calls       Base Space   Used Autos Params    Refs
  1596 ;; ---------------------------------------------------------------------------------
  1597 ;; (0) _main                                                 0     0      0      90
  1598 ;;                 _Device_Memory_Init
  1599 ;;                        _IOPort_Init
  1600 ;;                           _key_Scan
  1601 ;; ---------------------------------------------------------------------------------
  1602 ;; (1) _key_Scan                                             0     0      0      90
  1603 ;;                        _Input_INPUT
  1604 ;;                       _Input_INHIGH
  1605 ;;                        _Input_INLOW
  1606 ;; ---------------------------------------------------------------------------------
  1607 ;; (2) _Input_INLOW                                          0     0      0      30
  1608 ;;                          _Delay_xms
  1609 ;; ---------------------------------------------------------------------------------
  1610 ;; (2) _Input_INHIGH                                         0     0      0      30
  1611 ;;                          _Delay_xms
  1612 ;; ---------------------------------------------------------------------------------
  1613 ;; (2) _Input_INPUT                                          0     0      0      30
  1614 ;;                          _Delay_xms
  1615 ;; ---------------------------------------------------------------------------------
  1616 ;; (3) _Delay_xms                                            5     3      2      30
  1617 ;;                                              0 COMMON     5     3      2
  1618 ;; ---------------------------------------------------------------------------------
  1619 ;; (1) _IOPort_Init                                          0     0      0       0
  1620 ;; ---------------------------------------------------------------------------------
  1621 ;; (1) _Device_Memory_Init                                   1     1      0       0
  1622 ;;                                              0 COMMON     1     1      0
  1623 ;; ---------------------------------------------------------------------------------
  1624 ;; Estimated maximum stack depth 3
  1625 ;; ---------------------------------------------------------------------------------
  1626                           
  1627 ;; Call Graph Graphs:
  1628                           
  1629 ;; _main (ROOT)
  1630 ;;   _Device_Memory_Init
  1631 ;;   _IOPort_Init
  1632 ;;   _key_Scan
  1633 ;;     _Input_INPUT
  1634 ;;       _Delay_xms
  1635 ;;     _Input_INHIGH
  1636 ;;       _Delay_xms
  1637 ;;     _Input_INLOW
  1638 ;;       _Delay_xms
  1639 ;;
  1640                           
  1641 ;; Address spaces:
  1642                           
  1643 ;;Name               Size   Autos  Total    Cost      Usage
  1644 ;;SFR1                 0      0       0       2        0.0%
  1645 ;;BITSFR1              0      0       0       2        0.0%
  1646 ;;CODE                 0      0       0       0        0.0%
  1647 ;;DATA                 0      0       A       4        0.0%
  1648 ;;ABS                  0      0       7       3        0.0%
  1649 ;;NULL                 0      0       0       0        0.0%
  1650 ;;STACK                0      0       3       2        0.0%
  1651 ;;SFR0                 0      0       0       1        0.0%
  1652 ;;BITSFR0              0      0       0       1        0.0%
  1653 ;;COMMON              3E      5       7       1       11.3%
  1654 ;;BITCOMMON           3E      0       0       0        0.0%
  1655 ;;EEDATA             100      0       0       0        0.0%
  1656                           
  1657                           	global	_main
  1658                           psect	maintext,global,class=CODE,delta=2
  1659                           global __pmaintext
  1660  036A                     __pmaintext:
  1661                           
  1662 ;; *************** function _main *****************
  1663 ;; Defined at:
  1664 ;;		line 53 in file "MS80FX01_Project.c"
  1665 ;; Parameters:    Size  Location     Type
  1666 ;;		None
  1667 ;; Auto vars:     Size  Location     Type
  1668 ;;		None
  1669 ;; Return value:  Size  Location     Type
  1670 ;;		None               void
  1671 ;; Registers used:
  1672 ;;		wreg, status,2, status,0, pclath, cstack
  1673 ;; Tracked objects:
  1674 ;;		On entry : 17F/0
  1675 ;;		On exit  : 0/0
  1676 ;;		Unchanged: 0/0
  1677 ;; Data sizes:     COMMON
  1678 ;;      Params:         0
  1679 ;;      Locals:         0
  1680 ;;      Temps:          0
  1681 ;;      Totals:         0
  1682 ;;Total ram usage:        0 bytes
  1683 ;; Hardware stack levels required when called:    3
  1684 ;; This function calls:
  1685 ;;		_Device_Memory_Init
  1686 ;;		_IOPort_Init
  1687 ;;		_key_Scan
  1688 ;; This function is called by:
  1689 ;;		Startup code after reset
  1690 ;; This function uses a non-reentrant model
  1691 ;;
  1692                           psect	maintext
  1693                           	file	"MS80FX01_Project.c"
  1694                           	line	53
  1695                           	global	__size_of_main
  1696  0009                     	__size_of_main	equ	__end_of_main-_main
  1697                           	
  1698  036A                     _main:	
  1699                           	opt	stack 5
  1700                           ; Regs used in _main: [wreg+status,2+status,0+pclath+cstack]
  1701                           	line	54
  1702                           	
  1703  036A                     l2311:	
  1704                           ;MS80FX01_Project.c: 54: Device_Memory_Init();
  1705  036A  2373               	fcall	_Device_Memory_Init
  1706                           	line	55
  1707                           	
  1708  036B                     l2313:	
  1709                           ;MS80FX01_Project.c: 55: IOPort_Init();
  1710  036B  237F               	fcall	_IOPort_Init
  1711                           	line	56
  1712                           	
  1713  036C                     l2315:	
  1714                           ;MS80FX01_Project.c: 56: PA2=0;
  1715  036C  1283               	bcf	status, 5	;RP0=0, select bank0
  1716  036D  1105               	bcf	(42/8),(42)&7
  1717  036E  2B6F               	goto	l2317
  1718                           	line	57
  1719                           ;MS80FX01_Project.c: 57: while(1) {
  1720                           	
  1721  036F                     l447:	
  1722                           	line	58
  1723                           	
  1724  036F                     l2317:	
  1725                           ;MS80FX01_Project.c: 58: key_Scan();
  1726  036F  2361               	fcall	_key_Scan
  1727  0370  2B6F               	goto	l2317
  1728                           	line	59
  1729                           	
  1730  0371                     l448:	
  1731                           	line	57
  1732  0371  2B6F               	goto	l2317
  1733                           	
  1734  0372                     l449:	
  1735                           	line	60
  1736                           	
  1737  0372                     l450:	
  1738                           	global	start
  1739  0372  2800               	ljmp	start
  1740                           	opt stack 0
  1741                           GLOBAL	__end_of_main
  1742  0373                     	__end_of_main:
  1743 ;; =============== function _main ends ============
  1744                           
  1745                           	signat	_main,88
  1746                           	global	_key_Scan
  1747                           psect	text137,local,class=CODE,delta=2
  1748                           global __ptext137
  1749  0361                     __ptext137:
  1750                           
  1751 ;; *************** function _key_Scan *****************
  1752 ;; Defined at:
  1753 ;;		line 133 in file "MS80FX01_Project.c"
  1754 ;; Parameters:    Size  Location     Type
  1755 ;;		None
  1756 ;; Auto vars:     Size  Location     Type
  1757 ;;		None
  1758 ;; Return value:  Size  Location     Type
  1759 ;;		None               void
  1760 ;; Registers used:
  1761 ;;		wreg, status,2, status,0, pclath, cstack
  1762 ;; Tracked objects:
  1763 ;;		On entry : 0/0
  1764 ;;		On exit  : 0/0
  1765 ;;		Unchanged: 0/0
  1766 ;; Data sizes:     COMMON
  1767 ;;      Params:         0
  1768 ;;      Locals:         0
  1769 ;;      Temps:          0
  1770 ;;      Totals:         0
  1771 ;;Total ram usage:        0 bytes
  1772 ;; Hardware stack levels used:    1
  1773 ;; Hardware stack levels required when called:    2
  1774 ;; This function calls:
  1775 ;;		_Input_INPUT
  1776 ;;		_Input_INHIGH
  1777 ;;		_Input_INLOW
  1778 ;; This function is called by:
  1779 ;;		_main
  1780 ;; This function uses a non-reentrant model
  1781 ;;
  1782                           psect	text137
  1783                           	file	"MS80FX01_Project.c"
  1784                           	line	133
  1785                           	global	__size_of_key_Scan
  1786  0004                     	__size_of_key_Scan	equ	__end_of_key_Scan-_key_Scan
  1787                           	
  1788  0361                     _key_Scan:	
  1789                           	opt	stack 5
  1790                           ; Regs used in _key_Scan: [wreg+status,2+status,0+pclath+cstack]
  1791                           	line	135
  1792                           	
  1793  0361                     l2309:	
  1794                           ;MS80FX01_Project.c: 135: Input_INPUT();
  1795  0361  23E1               	fcall	_Input_INPUT
  1796                           	line	136
  1797                           ;MS80FX01_Project.c: 136: Input_INHIGH();
  1798  0362  23A7               	fcall	_Input_INHIGH
  1799                           	line	137
  1800                           ;MS80FX01_Project.c: 137: Input_INLOW();
  1801  0363  23C4               	fcall	_Input_INLOW
  1802                           	line	138
  1803                           	
  1804  0364                     l474:	
  1805  0364  0008               	return
  1806                           	opt stack 0
  1807                           GLOBAL	__end_of_key_Scan
  1808  0365                     	__end_of_key_Scan:
  1809 ;; =============== function _key_Scan ends ============
  1810                           
  1811                           	signat	_key_Scan,88
  1812                           	global	_Input_INLOW
  1813                           psect	text138,local,class=CODE,delta=2
  1814                           global __ptext138
  1815  03C4                     __ptext138:
  1816                           
  1817 ;; *************** function _Input_INLOW *****************
  1818 ;; Defined at:
  1819 ;;		line 118 in file "MS80FX01_Project.c"
  1820 ;; Parameters:    Size  Location     Type
  1821 ;;		None
  1822 ;; Auto vars:     Size  Location     Type
  1823 ;;		None
  1824 ;; Return value:  Size  Location     Type
  1825 ;;		None               void
  1826 ;; Registers used:
  1827 ;;		wreg, status,2, status,0, pclath, cstack
  1828 ;; Tracked objects:
  1829 ;;		On entry : 0/0
  1830 ;;		On exit  : 0/0
  1831 ;;		Unchanged: 0/0
  1832 ;; Data sizes:     COMMON
  1833 ;;      Params:         0
  1834 ;;      Locals:         0
  1835 ;;      Temps:          0
  1836 ;;      Totals:         0
  1837 ;;Total ram usage:        0 bytes
  1838 ;; Hardware stack levels used:    1
  1839 ;; Hardware stack levels required when called:    1
  1840 ;; This function calls:
  1841 ;;		_Delay_xms
  1842 ;; This function is called by:
  1843 ;;		_key_Scan
  1844 ;; This function uses a non-reentrant model
  1845 ;;
  1846                           psect	text138
  1847                           	file	"MS80FX01_Project.c"
  1848                           	line	118
  1849                           	global	__size_of_Input_INLOW
  1850  001D                     	__size_of_Input_INLOW	equ	__end_of_Input_INLOW-_Input_INLOW
  1851                           	
  1852  03C4                     _Input_INLOW:	
  1853                           	opt	stack 5
  1854                           ; Regs used in _Input_INLOW: [wreg+status,2+status,0+pclath+cstack]
  1855                           	line	119
  1856                           	
  1857  03C4                     l2297:	
  1858                           ;MS80FX01_Project.c: 119: if(PA3 != 0) {
  1859  03C4  1283               	bcf	status, 5	;RP0=0, select bank0
  1860  03C5  1D85               	btfss	(43/8),(43)&7
  1861  03C6  2BC8               	goto	u2291
  1862  03C7  2BC9               	goto	u2290
  1863  03C8                     u2291:
  1864  03C8  2BE0               	goto	l471
  1865  03C9                     u2290:
  1866                           	line	120
  1867                           	
  1868  03C9                     l2299:	
  1869                           ;MS80FX01_Project.c: 120: Delay_xms(10);
  1870  03C9  300A               	movlw	low(0Ah)
  1871  03CA  00C0               	movwf	(?_Delay_xms)
  1872  03CB  3000               	movlw	high(0Ah)
  1873  03CC  00C1               	movwf	((?_Delay_xms))+1
  1874  03CD  238B               	fcall	_Delay_xms
  1875                           	line	121
  1876                           	
  1877  03CE                     l2301:	
  1878                           ;MS80FX01_Project.c: 121: if(PA3 != 0) {
  1879  03CE  1283               	bcf	status, 5	;RP0=0, select bank0
  1880  03CF  1D85               	btfss	(43/8),(43)&7
  1881  03D0  2BD2               	goto	u2301
  1882  03D1  2BD3               	goto	u2300
  1883  03D2                     u2301:
  1884  03D2  2BE0               	goto	l471
  1885  03D3                     u2300:
  1886                           	line	122
  1887                           	
  1888  03D3                     l2303:	
  1889                           ;MS80FX01_Project.c: 122: flag_F=1;
  1890  03D3  01C5               	clrf	(_flag_F)
  1891  03D4  1403               	bsf	status,0
  1892  03D5  0DC5               	rlf	(_flag_F),f
  1893                           	line	123
  1894                           	
  1895  03D6                     l2305:	
  1896                           ;MS80FX01_Project.c: 123: if(PA3 != 0)
  1897  03D6  1D85               	btfss	(43/8),(43)&7
  1898  03D7  2BD9               	goto	u2311
  1899  03D8  2BDA               	goto	u2310
  1900  03D9                     u2311:
  1901  03D9  2BDC               	goto	l469
  1902  03DA                     u2310:
  1903                           	line	124
  1904                           	
  1905  03DA                     l2307:	
  1906                           ;MS80FX01_Project.c: 124: PA2=0;
  1907  03DA  1105               	bcf	(42/8),(42)&7
  1908  03DB  2BE0               	goto	l471
  1909                           	line	125
  1910                           	
  1911  03DC                     l469:	
  1912                           	line	126
  1913                           ;MS80FX01_Project.c: 125: else
  1914                           ;MS80FX01_Project.c: 126: PA2=1;
  1915  03DC  1505               	bsf	(42/8),(42)&7
  1916  03DD  2BE0               	goto	l471
  1917                           	
  1918  03DE                     l470:	
  1919  03DE  2BE0               	goto	l471
  1920                           	line	127
  1921                           	
  1922  03DF                     l468:	
  1923  03DF  2BE0               	goto	l471
  1924                           	line	128
  1925                           	
  1926  03E0                     l467:	
  1927                           	line	129
  1928                           	
  1929  03E0                     l471:	
  1930  03E0  0008               	return
  1931                           	opt stack 0
  1932                           GLOBAL	__end_of_Input_INLOW
  1933  03E1                     	__end_of_Input_INLOW:
  1934 ;; =============== function _Input_INLOW ends ============
  1935                           
  1936                           	signat	_Input_INLOW,88
  1937                           	global	_Input_INHIGH
  1938                           psect	text139,local,class=CODE,delta=2
  1939                           global __ptext139
  1940  03A7                     __ptext139:
  1941                           
  1942 ;; *************** function _Input_INHIGH *****************
  1943 ;; Defined at:
  1944 ;;		line 97 in file "MS80FX01_Project.c"
  1945 ;; Parameters:    Size  Location     Type
  1946 ;;		None
  1947 ;; Auto vars:     Size  Location     Type
  1948 ;;		None
  1949 ;; Return value:  Size  Location     Type
  1950 ;;		None               void
  1951 ;; Registers used:
  1952 ;;		wreg, status,2, status,0, pclath, cstack
  1953 ;; Tracked objects:
  1954 ;;		On entry : 0/0
  1955 ;;		On exit  : 0/0
  1956 ;;		Unchanged: 0/0
  1957 ;; Data sizes:     COMMON
  1958 ;;      Params:         0
  1959 ;;      Locals:         0
  1960 ;;      Temps:          0
  1961 ;;      Totals:         0
  1962 ;;Total ram usage:        0 bytes
  1963 ;; Hardware stack levels used:    1
  1964 ;; Hardware stack levels required when called:    1
  1965 ;; This function calls:
  1966 ;;		_Delay_xms
  1967 ;; This function is called by:
  1968 ;;		_key_Scan
  1969 ;; This function uses a non-reentrant model
  1970 ;;
  1971                           psect	text139
  1972                           	file	"MS80FX01_Project.c"
  1973                           	line	97
  1974                           	global	__size_of_Input_INHIGH
  1975  001D                     	__size_of_Input_INHIGH	equ	__end_of_Input_INHIGH-_Input_INHIGH
  1976                           	
  1977  03A7                     _Input_INHIGH:	
  1978                           	opt	stack 5
  1979                           ; Regs used in _Input_INHIGH: [wreg+status,2+status,0+pclath+cstack]
  1980                           	line	98
  1981                           	
  1982  03A7                     l2285:	
  1983                           ;MS80FX01_Project.c: 98: if(PA4 != 0) {
  1984  03A7  1283               	bcf	status, 5	;RP0=0, select bank0
  1985  03A8  1E05               	btfss	(44/8),(44)&7
  1986  03A9  2BAB               	goto	u2261
  1987  03AA  2BAC               	goto	u2260
  1988  03AB                     u2261:
  1989  03AB  2BC3               	goto	l464
  1990  03AC                     u2260:
  1991                           	line	99
  1992                           	
  1993  03AC                     l2287:	
  1994                           ;MS80FX01_Project.c: 99: Delay_xms(10);
  1995  03AC  300A               	movlw	low(0Ah)
  1996  03AD  00C0               	movwf	(?_Delay_xms)
  1997  03AE  3000               	movlw	high(0Ah)
  1998  03AF  00C1               	movwf	((?_Delay_xms))+1
  1999  03B0  238B               	fcall	_Delay_xms
  2000                           	line	100
  2001                           	
  2002  03B1                     l2289:	
  2003                           ;MS80FX01_Project.c: 100: if(PA4 != 0) {
  2004  03B1  1283               	bcf	status, 5	;RP0=0, select bank0
  2005  03B2  1E05               	btfss	(44/8),(44)&7
  2006  03B3  2BB5               	goto	u2271
  2007  03B4  2BB6               	goto	u2270
  2008  03B5                     u2271:
  2009  03B5  2BC3               	goto	l464
  2010  03B6                     u2270:
  2011                           	line	101
  2012                           	
  2013  03B6                     l2291:	
  2014                           ;MS80FX01_Project.c: 101: flag_F=1;
  2015  03B6  01C5               	clrf	(_flag_F)
  2016  03B7  1403               	bsf	status,0
  2017  03B8  0DC5               	rlf	(_flag_F),f
  2018                           	line	102
  2019                           	
  2020  03B9                     l2293:	
  2021                           ;MS80FX01_Project.c: 102: if(PA3 != 0)
  2022  03B9  1D85               	btfss	(43/8),(43)&7
  2023  03BA  2BBC               	goto	u2281
  2024  03BB  2BBD               	goto	u2280
  2025  03BC                     u2281:
  2026  03BC  2BBF               	goto	l462
  2027  03BD                     u2280:
  2028                           	line	103
  2029                           	
  2030  03BD                     l2295:	
  2031                           ;MS80FX01_Project.c: 103: PA2=0;
  2032  03BD  1105               	bcf	(42/8),(42)&7
  2033  03BE  2BC3               	goto	l464
  2034                           	line	104
  2035                           	
  2036  03BF                     l462:	
  2037                           	line	105
  2038                           ;MS80FX01_Project.c: 104: else
  2039                           ;MS80FX01_Project.c: 105: PA2=1;
  2040  03BF  1505               	bsf	(42/8),(42)&7
  2041  03C0  2BC3               	goto	l464
  2042                           	
  2043  03C1                     l463:	
  2044  03C1  2BC3               	goto	l464
  2045                           	line	106
  2046                           	
  2047  03C2                     l461:	
  2048  03C2  2BC3               	goto	l464
  2049                           	line	107
  2050                           	
  2051  03C3                     l460:	
  2052                           	line	108
  2053                           	
  2054  03C3                     l464:	
  2055  03C3  0008               	return
  2056                           	opt stack 0
  2057                           GLOBAL	__end_of_Input_INHIGH
  2058  03C4                     	__end_of_Input_INHIGH:
  2059 ;; =============== function _Input_INHIGH ends ============
  2060                           
  2061                           	signat	_Input_INHIGH,88
  2062                           	global	_Input_INPUT
  2063                           psect	text140,local,class=CODE,delta=2
  2064                           global __ptext140
  2065  03E1                     __ptext140:
  2066                           
  2067 ;; *************** function _Input_INPUT *****************
  2068 ;; Defined at:
  2069 ;;		line 69 in file "MS80FX01_Project.c"
  2070 ;; Parameters:    Size  Location     Type
  2071 ;;		None
  2072 ;; Auto vars:     Size  Location     Type
  2073 ;;		None
  2074 ;; Return value:  Size  Location     Type
  2075 ;;		None               void
  2076 ;; Registers used:
  2077 ;;		wreg, status,2, status,0, pclath, cstack
  2078 ;; Tracked objects:
  2079 ;;		On entry : 0/0
  2080 ;;		On exit  : 0/0
  2081 ;;		Unchanged: 0/0
  2082 ;; Data sizes:     COMMON
  2083 ;;      Params:         0
  2084 ;;      Locals:         0
  2085 ;;      Temps:          0
  2086 ;;      Totals:         0
  2087 ;;Total ram usage:        0 bytes
  2088 ;; Hardware stack levels used:    1
  2089 ;; Hardware stack levels required when called:    1
  2090 ;; This function calls:
  2091 ;;		_Delay_xms
  2092 ;; This function is called by:
  2093 ;;		_key_Scan
  2094 ;; This function uses a non-reentrant model
  2095 ;;
  2096                           psect	text140
  2097                           	file	"MS80FX01_Project.c"
  2098                           	line	69
  2099                           	global	__size_of_Input_INPUT
  2100  001F                     	__size_of_Input_INPUT	equ	__end_of_Input_INPUT-_Input_INPUT
  2101                           	
  2102  03E1                     _Input_INPUT:	
  2103                           	opt	stack 5
  2104                           ; Regs used in _Input_INPUT: [wreg+status,2+status,0+pclath+cstack]
  2105                           	line	75
  2106                           	
  2107  03E1                     l2273:	
  2108                           ;MS80FX01_Project.c: 75: if(PA5 == 0) {
  2109  03E1  1283               	bcf	status, 5	;RP0=0, select bank0
  2110  03E2  1A85               	btfsc	(45/8),(45)&7
  2111  03E3  2BE5               	goto	u2231
  2112  03E4  2BE6               	goto	u2230
  2113  03E5                     u2231:
  2114  03E5  2BFF               	goto	l457
  2115  03E6                     u2230:
  2116                           	line	76
  2117                           	
  2118  03E6                     l2275:	
  2119                           ;MS80FX01_Project.c: 76: Delay_xms(10);
  2120  03E6  300A               	movlw	low(0Ah)
  2121  03E7  00C0               	movwf	(?_Delay_xms)
  2122  03E8  3000               	movlw	high(0Ah)
  2123  03E9  00C1               	movwf	((?_Delay_xms))+1
  2124  03EA  238B               	fcall	_Delay_xms
  2125                           	line	77
  2126                           	
  2127  03EB                     l2277:	
  2128                           ;MS80FX01_Project.c: 77: if(PA5 == 1) {
  2129  03EB  1283               	bcf	status, 5	;RP0=0, select bank0
  2130  03EC  1E85               	btfss	(45/8),(45)&7
  2131  03ED  2BEF               	goto	u2241
  2132  03EE  2BF0               	goto	u2240
  2133  03EF                     u2241:
  2134  03EF  2BFF               	goto	l457
  2135  03F0                     u2240:
  2136                           	line	78
  2137                           	
  2138  03F0                     l2279:	
  2139                           ;MS80FX01_Project.c: 78: if(flag_0 == 0) {
  2140  03F0  08C6               	movf	(_flag_0),f
  2141  03F1  1D03               	skipz
  2142  03F2  2BF4               	goto	u2251
  2143  03F3  2BF5               	goto	u2250
  2144  03F4                     u2251:
  2145  03F4  2BFA               	goto	l455
  2146  03F5                     u2250:
  2147                           	line	79
  2148                           	
  2149  03F5                     l2281:	
  2150                           ;MS80FX01_Project.c: 79: PA2=0;
  2151  03F5  1105               	bcf	(42/8),(42)&7
  2152                           	line	80
  2153                           	
  2154  03F6                     l2283:	
  2155                           ;MS80FX01_Project.c: 80: flag_0=1;
  2156  03F6  01C6               	clrf	(_flag_0)
  2157  03F7  1403               	bsf	status,0
  2158  03F8  0DC6               	rlf	(_flag_0),f
  2159                           	line	81
  2160                           ;MS80FX01_Project.c: 81: } else {
  2161  03F9  2BFF               	goto	l457
  2162                           	
  2163  03FA                     l455:	
  2164                           	line	82
  2165                           ;MS80FX01_Project.c: 82: PA2=1;
  2166  03FA  1505               	bsf	(42/8),(42)&7
  2167                           	line	83
  2168                           ;MS80FX01_Project.c: 83: flag_0=0;
  2169  03FB  01C6               	clrf	(_flag_0)
  2170  03FC  2BFF               	goto	l457
  2171                           	line	84
  2172                           	
  2173  03FD                     l456:	
  2174                           	line	85
  2175                           ;MS80FX01_Project.c: 84: }
  2176                           ;MS80FX01_Project.c: 85: return;
  2177  03FD  2BFF               	goto	l457
  2178                           	line	86
  2179                           	
  2180  03FE                     l454:	
  2181  03FE  2BFF               	goto	l457
  2182                           	line	87
  2183                           	
  2184  03FF                     l453:	
  2185                           	line	88
  2186                           	
  2187  03FF                     l457:	
  2188  03FF  0008               	return
  2189                           	opt stack 0
  2190                           GLOBAL	__end_of_Input_INPUT
  2191  0400                     	__end_of_Input_INPUT:
  2192 ;; =============== function _Input_INPUT ends ============
  2193                           
  2194                           	signat	_Input_INPUT,88
  2195                           	global	_Delay_xms
  2196                           psect	text141,local,class=CODE,delta=2
  2197                           global __ptext141
  2198  038B                     __ptext141:
  2199                           
  2200 ;; *************** function _Delay_xms *****************
  2201 ;; Defined at:
  2202 ;;		line 142 in file "MS80FX01_Project.c"
  2203 ;; Parameters:    Size  Location     Type
  2204 ;;  x               2    0[COMMON] unsigned int 
  2205 ;; Auto vars:     Size  Location     Type
  2206 ;;  i               2    3[COMMON] unsigned int 
  2207 ;; Return value:  Size  Location     Type
  2208 ;;		None               void
  2209 ;; Registers used:
  2210 ;;		wreg, status,2
  2211 ;; Tracked objects:
  2212 ;;		On entry : 0/0
  2213 ;;		On exit  : 0/0
  2214 ;;		Unchanged: 0/0
  2215 ;; Data sizes:     COMMON
  2216 ;;      Params:         2
  2217 ;;      Locals:         2
  2218 ;;      Temps:          1
  2219 ;;      Totals:         5
  2220 ;;Total ram usage:        5 bytes
  2221 ;; Hardware stack levels used:    1
  2222 ;; This function calls:
  2223 ;;		Nothing
  2224 ;; This function is called by:
  2225 ;;		_Input_INPUT
  2226 ;;		_Input_INHIGH
  2227 ;;		_Input_INLOW
  2228 ;; This function uses a non-reentrant model
  2229 ;;
  2230                           psect	text141
  2231                           	file	"MS80FX01_Project.c"
  2232                           	line	142
  2233                           	global	__size_of_Delay_xms
  2234  001C                     	__size_of_Delay_xms	equ	__end_of_Delay_xms-_Delay_xms
  2235                           	
  2236  038B                     _Delay_xms:	
  2237                           	opt	stack 5
  2238                           ; Regs used in _Delay_xms: [wreg+status,2]
  2239                           	line	144
  2240                           	
  2241  038B                     l2269:	
  2242                           ;MS80FX01_Project.c: 143: unsigned int i;
  2243                           ;MS80FX01_Project.c: 144: for(i=0; i<x; i++) {
  2244  038B  01C3               	clrf	(Delay_xms@i)
  2245  038C  01C4               	clrf	(Delay_xms@i+1)
  2246  038D  2B9B               	goto	l477
  2247                           	
  2248  038E                     l478:	
  2249                           	line	145
  2250                           	
  2251  038E                     l2271:	
  2252                           ;MS80FX01_Project.c: 145: _delay((unsigned long)((1)*(4000000/4000.0)));
  2253                           	opt asmopt_off
  2254  038E  30F9               movlw	249
  2255  038F  00C2               movwf	(??_Delay_xms+0)+0,f
  2256  0390                     u2327:
  2257  0390  0064               	clrwdt
  2258  0391  0BC2               decfsz	(??_Delay_xms+0)+0,f
  2259  0392  2B90               	goto	u2327
  2260  0393  2B94               	nop2	;nop
  2261  0394  0064               	clrwdt
  2262                           opt asmopt_on
  2263                           
  2264                           	line	144
  2265  0395  3001               	movlw	low(01h)
  2266  0396  07C3               	addwf	(Delay_xms@i),f
  2267  0397  1803               	skipnc
  2268  0398  0AC4               	incf	(Delay_xms@i+1),f
  2269  0399  3000               	movlw	high(01h)
  2270  039A  07C4               	addwf	(Delay_xms@i+1),f
  2271                           	
  2272  039B                     l477:	
  2273  039B  0841               	movf	(Delay_xms@x+1),w
  2274  039C  0244               	subwf	(Delay_xms@i+1),w
  2275  039D  1D03               	skipz
  2276  039E  2BA1               	goto	u2225
  2277  039F  0840               	movf	(Delay_xms@x),w
  2278  03A0  0243               	subwf	(Delay_xms@i),w
  2279  03A1                     u2225:
  2280  03A1  1C03               	skipc
  2281  03A2  2BA4               	goto	u2221
  2282  03A3  2BA5               	goto	u2220
  2283  03A4                     u2221:
  2284  03A4  2B8E               	goto	l2271
  2285  03A5                     u2220:
  2286  03A5  2BA6               	goto	l480
  2287                           	
  2288  03A6                     l479:	
  2289                           	line	148
  2290                           	
  2291  03A6                     l480:	
  2292  03A6  0008               	return
  2293                           	opt stack 0
  2294                           GLOBAL	__end_of_Delay_xms
  2295  03A7                     	__end_of_Delay_xms:
  2296 ;; =============== function _Delay_xms ends ============
  2297                           
  2298                           	signat	_Delay_xms,4216
  2299                           	global	_IOPort_Init
  2300                           psect	text142,local,class=CODE,delta=2
  2301                           global __ptext142
  2302  037F                     __ptext142:
  2303                           
  2304 ;; *************** function _IOPort_Init *****************
  2305 ;; Defined at:
  2306 ;;		line 36 in file "MS80FX01_Project.c"
  2307 ;; Parameters:    Size  Location     Type
  2308 ;;		None
  2309 ;; Auto vars:     Size  Location     Type
  2310 ;;		None
  2311 ;; Return value:  Size  Location     Type
  2312 ;;		None               void
  2313 ;; Registers used:
  2314 ;;		None
  2315 ;; Tracked objects:
  2316 ;;		On entry : 0/0
  2317 ;;		On exit  : 0/0
  2318 ;;		Unchanged: 0/0
  2319 ;; Data sizes:     COMMON
  2320 ;;      Params:         0
  2321 ;;      Locals:         0
  2322 ;;      Temps:          0
  2323 ;;      Totals:         0
  2324 ;;Total ram usage:        0 bytes
  2325 ;; Hardware stack levels used:    1
  2326 ;; This function calls:
  2327 ;;		Nothing
  2328 ;; This function is called by:
  2329 ;;		_main
  2330 ;; This function uses a non-reentrant model
  2331 ;;
  2332                           psect	text142
  2333                           	file	"MS80FX01_Project.c"
  2334                           	line	36
  2335                           	global	__size_of_IOPort_Init
  2336  000C                     	__size_of_IOPort_Init	equ	__end_of_IOPort_Init-_IOPort_Init
  2337                           	
  2338  037F                     _IOPort_Init:	
  2339                           	opt	stack 7
  2340                           ; Regs used in _IOPort_Init: []
  2341                           	line	38
  2342                           	
  2343  037F                     l1409:	
  2344                           ;MS80FX01_Project.c: 38: TRISA0=0;
  2345  037F  1683               	bsf	status, 5	;RP0=1, select bank1
  2346  0380  1005               	bcf	(1064/8)^080h,(1064)&7
  2347                           	line	39
  2348                           ;MS80FX01_Project.c: 39: TRISA1=0;
  2349  0381  1085               	bcf	(1065/8)^080h,(1065)&7
  2350                           	line	40
  2351                           ;MS80FX01_Project.c: 40: TRISA2=0;
  2352  0382  1105               	bcf	(1066/8)^080h,(1066)&7
  2353                           	line	41
  2354                           ;MS80FX01_Project.c: 41: TRISA4=1;
  2355  0383  1605               	bsf	(1068/8)^080h,(1068)&7
  2356                           	line	42
  2357                           ;MS80FX01_Project.c: 42: TRISA5=1;
  2358  0384  1685               	bsf	(1069/8)^080h,(1069)&7
  2359                           	line	44
  2360                           ;MS80FX01_Project.c: 44: WPUA0=0;
  2361  0385  1015               	bcf	(1192/8)^080h,(1192)&7
  2362                           	line	45
  2363                           ;MS80FX01_Project.c: 45: WPUA1=0;
  2364  0386  1095               	bcf	(1193/8)^080h,(1193)&7
  2365                           	line	46
  2366                           ;MS80FX01_Project.c: 46: WPUA2=0;
  2367  0387  1115               	bcf	(1194/8)^080h,(1194)&7
  2368                           	line	47
  2369                           ;MS80FX01_Project.c: 47: WPUA4=0;
  2370  0388  1215               	bcf	(1196/8)^080h,(1196)&7
  2371                           	line	48
  2372                           ;MS80FX01_Project.c: 48: WPUA5=0;
  2373  0389  1295               	bcf	(1197/8)^080h,(1197)&7
  2374                           	line	50
  2375                           	
  2376  038A                     l444:	
  2377  038A  0008               	return
  2378                           	opt stack 0
  2379                           GLOBAL	__end_of_IOPort_Init
  2380  038B                     	__end_of_IOPort_Init:
  2381 ;; =============== function _IOPort_Init ends ============
  2382                           
  2383                           	signat	_IOPort_Init,88
  2384                           	global	_Device_Memory_Init
  2385                           psect	text143,local,class=CODE,delta=2
  2386                           global __ptext143
  2387  0373                     __ptext143:
  2388                           
  2389 ;; *************** function _Device_Memory_Init *****************
  2390 ;; Defined at:
  2391 ;;		line 23 in file "MS80FX01_Project.c"
  2392 ;; Parameters:    Size  Location     Type
  2393 ;;		None
  2394 ;; Auto vars:     Size  Location     Type
  2395 ;;		None
  2396 ;; Return value:  Size  Location     Type
  2397 ;;		None               void
  2398 ;; Registers used:
  2399 ;;		wreg
  2400 ;; Tracked objects:
  2401 ;;		On entry : 0/0
  2402 ;;		On exit  : 0/0
  2403 ;;		Unchanged: 0/0
  2404 ;; Data sizes:     COMMON
  2405 ;;      Params:         0
  2406 ;;      Locals:         0
  2407 ;;      Temps:          1
  2408 ;;      Totals:         1
  2409 ;;Total ram usage:        1 bytes
  2410 ;; Hardware stack levels used:    1
  2411 ;; This function calls:
  2412 ;;		Nothing
  2413 ;; This function is called by:
  2414 ;;		_main
  2415 ;; This function uses a non-reentrant model
  2416 ;;
  2417                           psect	text143
  2418                           	file	"MS80FX01_Project.c"
  2419                           	line	23
  2420                           	global	__size_of_Device_Memory_Init
  2421  000C                     	__size_of_Device_Memory_Init	equ	__end_of_Device_Memory_Init-_Device_Memory_Init
  2422                           	
  2423  0373                     _Device_Memory_Init:	
  2424                           	opt	stack 7
  2425                           ; Regs used in _Device_Memory_Init: [wreg]
  2426                           	line	24
  2427                           	
  2428  0373                     l1405:	
  2429                           ;MS80FX01_Project.c: 24: OPTION = 0b00000000;
  2430  0373  1683               	bsf	status, 5	;RP0=1, select bank1
  2431  0374  0181               	clrf	(129)^080h	;volatile
  2432                           	line	25
  2433                           	
  2434  0375                     l1407:	
  2435                           ;MS80FX01_Project.c: 25: OSCCON = 0B01010000;
  2436  0375  3050               	movlw	(050h)
  2437  0376  00C0               	movwf	(??_Device_Memory_Init+0)+0
  2438  0377  0840               	movf	(??_Device_Memory_Init+0)+0,w
  2439  0378  008F               	movwf	(143)^080h	;volatile
  2440                           	line	26
  2441                           ;MS80FX01_Project.c: 26: WDTCON = 0B00001000;
  2442  0379  3008               	movlw	(08h)
  2443  037A  00C0               	movwf	(??_Device_Memory_Init+0)+0
  2444  037B  0840               	movf	(??_Device_Memory_Init+0)+0,w
  2445  037C  1283               	bcf	status, 5	;RP0=0, select bank0
  2446  037D  0098               	movwf	(24)	;volatile
  2447                           	line	27
  2448                           	
  2449  037E                     l441:	
  2450  037E  0008               	return
  2451                           	opt stack 0
  2452                           GLOBAL	__end_of_Device_Memory_Init
  2453  037F                     	__end_of_Device_Memory_Init:
  2454 ;; =============== function _Device_Memory_Init ends ============
  2455                           
  2456                           	signat	_Device_Memory_Init,88
  2457                           psect	text144,local,class=CODE,delta=2
  2458                           global __ptext144
  2459  0000                     __ptext144:
  2460                           	global	btemp
  2461  007E                     	btemp set 07Eh
  2462                           
  2463                           	DABS	1,126,2	;btemp
  2464                           	global	wtemp0
  2465  007E                     	wtemp0 set btemp


HI-TECH Software PICC Macro Assembler V9.83 build 10920 
Symbol Table                                                                                   Tue Apr 23 17:36:33 2019

                          _C 0018                            _Z 001A                           _DC 0019  
                         _HC 0019                           _GO 00F9                           _RD 04E0  
                         _RP 001D                           _WR 04E8                          l441 037E  
                        l450 0372                          l444 038A                          l460 03C3  
                        l453 03FF                          l461 03C2                          l454 03FE  
                        l462 03BF                          l470 03DE                          _CM0 00C8  
                        l455 03FA                          l463 03C1                          l471 03E0  
                        l447 036F                          _CM1 00C9                          l480 03A6  
                        l456 03FD                          l464 03C3                          l448 0371  
                        _CM2 00CA                          l457 03FF                          l449 0372  
                        l474 0364                          l467 03E0                          l468 03DF  
                        l477 039B                          l469 03DC                          l478 038E  
                        l479 03A6                          _CIS 00CB                          _PA0 0028  
                        _PA1 0029                          _GIE 005F                          _PA2 002A  
                        _PA3 002B                          _PA4 002C                          _PA5 002D  
                        _RA0 0028                          _RA1 0029                          _RA2 002A  
                        _RA3 002B                          _RC0 0038                          _RA4 002C  
                        _RC1 0039                          _RA5 002D                          _RC2 003A  
                        _RC3 003B                          _RC4 003C                          _RC5 003D  
                        _IOC 0096                          _FSR 0004                          _PCL 0002  
                        _PR2 0092                          _PS0 0408                          _PS1 0409  
                        _PS2 040A                          _RP0 001D                          _IRP 001F  
                        _RP1 001E                          _HTS 047A                          _SCS 0478  
                        _PSA 040B                          _LTS 0479                          _VR0 04C8  
                        _VR1 04C9                          _VR2 04CA                          _VR3 04CB  
                        _VRR 04CD                          _WPU 0095                          _nPD 001B  
                        _nPF 001B                          _nTF 001C                          _nTO 001C  
                       _C1IE 0463                         _C1IF 0063                         _C2IE 0464  
                       _C2IF 0064                         l1405 0373                         l2301 03CE  
                       l1407 0375                         l2303 03D3                         l2311 036A  
                       l1409 037F                         l2305 03D6                         l2313 036B  
                       l2307 03DA                         l2315 036C                         l2309 0361  
                       l2317 036F                         l2271 038E                         l2281 03F5  
                       l2273 03E1                         l2283 03F6                         l2275 03E6  
                       l2291 03B6                         l2269 038B                         l2277 03EB  
                       l2293 03B9                         l2285 03A7                         l2279 03F0  
                       l2295 03BD                         l2287 03AC                         l2289 03B1  
                       l2297 03C4                         l2299 03C9                         _ADIE 0466  
                       _ADIF 0066                         _ADFM 00FF                         _ADON 00F8  
                       _P1M0 00AE                         _CHS0 00FA                         _P1M1 00AF  
                       _CHS1 00FB                         _CHS2 00FC                         _EEIE 0467  
                       _EEIF 0067                         _ANS0 0488                         _ANS1 0489  
                       _ANS2 048A                         _ANS3 048B                         _ANS4 048C  
                       _ANS5 048D                         _ANS6 048E                         _ANS7 048F  
                       _T0IE 005D                         _T0IF 005A                         _T0CS 040D  
                       _IOC0 04B0                         _T1IE 0460                         _IOC1 04B1  
                       _IOC2 04B2                         _T1IF 0060                         _IOC3 04B3  
                       _IOC4 04B4                         _T2IE 0461                         _IOC5 04B5  
                       _T2IF 0061                         _PDC0 00B0                         _PDC1 00B1  
                       _PDC2 00B2                         _PDC3 00B3                         _PDC4 00B4  
                       _IOCA 0096                         _T0SE 040C                         _PDC5 00B5  
                       u2220 03A5                         u2300 03D3                         _PDC6 00B6  
                       u2221 03A4                         u2301 03D2                         u2230 03E6  
                       u2310 03DA                         _INDF 0000                         u2231 03E5  
                       u2311 03D9                         u2240 03F0                         u2225 03A1  
                       u2241 03EF                         u2250 03F5                         u2251 03F4  
                       u2260 03AC                         u2261 03AB                         u2270 03B6  
                       u2327 0390                         u2271 03B5                         _PAGE 001D  
                       u2280 03BD                         u2281 03BC                         u2290 03C9  
                       u2291 03C8                         _PAIE 005B                         _PAIF 0058  
                       _PIE1 008C                         _RAIE 005B                         _PEIE 005E  
                       _RAIF 0058                         _INTE 005C                         _INTF 0059  
                       _PCON 008E                         _PIR1 000C                         _VCFG 00FE  
                       _TMR0 0001                         _TMR1 000E                         _TMR2 0011  
                       _OSTS 047B                         _TUN0 0480                         _TUN1 0481  
                       _TUN2 0482                         _TUN3 0483                         _TUN4 0484  
                       _VREN 04CF                         _WPU0 04A8                         _WPU1 04A9  
                       _WPU2 04AA                         _WPU4 04AC                         _WPU5 04AD  
                       _ZERO 001A                         _WREN 04E2                         _WPUA 0095  
                       _nBOD 0470                         _nBOR 0470   __end_of_Device_Memory_Init 037F  
                       _nPOR 0471                         _main 036A                         btemp 007E  
                       start 0000                        _C1INV 00CC                        _DC1B0 00AC  
                      _DC1B1 00AD                        _C2INV 00CD                        _C1OUT 00CE  
                      _C2OUT 00CF                        _ADCS0 04FC                        _ADCS1 04FD  
                      _ADCS2 04FE                        ?_main 0040                        _EEADR 009B  
                      _CCPR1 0013                        _EEDAT 009A                        _CARRY 0018  
                      _ANSEL 0091                        _T1CON 0010                        _IOCA0 04B0  
                      _IOCA1 04B1                        _T2CON 0012                        _IOCA2 04B2  
                      _IOCA3 04B3                        _IOCA4 04B4                        _IOCA5 04B5  
                      _T1GSS 00D1                        _IRCF0 047C                        _IRCF1 047D  
                      _IRCF2 047E                        _LFMOD 047F                        _SFR00 0000  
                      _SFR01 0001                        _SFR10 0010                        _SFR02 0002  
                      _SFR11 0011                        _SFR03 0003                        _SFR12 0012  
                      _SFR04 0004                        _SFR13 0013                        _SFR05 0005  
                      _SFR14 0014                        _SFR06 0006                        _SFR15 0015  
                      _SFR07 0007                        _SFR16 0016                        _SFR08 0008  
                      _SFR17 0017                        _SFR09 0009                        _SFR18 0018  
                      _SFR19 0019                        _SFR80 0080                        _SFR81 0081  
                      _SFR0A 000A                        _SFR90 0090                        _SFR82 0082  
                      _SFR0B 000B                        _SFR91 0091                        _SFR83 0083  
                      _SFR1A 001A                        _SFR0C 000C                        _SFR84 0084  
                      _SFR0D 000D                        _SFR92 0092                        _SFR1B 001B  
                      _SFR93 0093                        _SFR0E 000E                        _SFR85 0085  
                      _SFR1C 001C                        _SFR94 0094                        _SFR86 0086  
                      _SFR0F 000F                        _SFR1D 001D                        _SFR87 0087  
                      _SFR1E 001E                        _SFR95 0095                        _SFR88 0088  
                      _SFR1F 001F                        _SFR96 0096                        _SFR97 0097  
                      _SFR89 0089                        _SFR98 0098                        _SFR99 0099  
                      _SFR8A 008A                        _SFR8B 008B                        _SFR9A 009A  
                      _SFR8C 008C                        _SFR8D 008D                        _SFR9B 009B  
                      _SFR9C 009C                        _SFR8E 008E                        _SFR9D 009D  
                      _SFR8F 008F                        _SFR9E 009E                        _SFR9F 009F  
                      _OSFIE 0462                        _OSFIF 0062                        _TMR1H 000F  
                      _TMR1L 000E                        _PORTA 0005                        _PORTC 0007  
                      _PRSEN 00B7                        _TRISA 0085                        _TRISC 0087  
                      _WREN1 04E2                        _WREN2 04E4                        _WREN3 04E5  
                      _VRCON 0099                        _WPUA0 04A8                        _WPUA1 04A9  
                      _WPUA2 04AA                        _WPUA4 04AC                        _WPUA5 04AD  
                      _WRERR 04E3                        _nDONE 00F9                        _nPAPU 040F  
                      _nRAPU 040F                ??_Input_INLOW 0045                ??_Input_INPUT 0045  
                      status 0003                        wtemp0 007E                 __end_of_main 0373  
         __size_of_Delay_xms 001C                       ??_main 0045                ?_Input_INHIGH 0040  
                     _C2SYNC 00D0                       _ADCON0 001F                       _ADCON1 009F  
                     _CCP1M0 00A8                       _CCP1M1 00A9                       _CCP1M2 00AA  
                     _CCP1M3 00AB                       _CCP1IE 0465                       _CCP1IF 0065  
                     _ADRESH 001E                       _ADRESL 009E                       _EEDATA 009A  
                     _ECCPAS 0017                       _ECCPIE 0465                       _ECCPIF 0065  
                     _CCPR1H 0014                       _CCPR1L 0013                       _EECON1 009C  
                     _EECON2 009D                       _CMCON0 0019                       _CKCNTI 00D9  
                     _CMCON1 001A                       _CKMAVG 00DA                       _HFIOFR 047A  
                     _T1GINV 0087                       _LFIOFR 0479                       _INTEDG 040E  
                     _PCLATH 000A                       _INTCON 000B                       _SBODEN 0474  
                     _SBOREN 0474                       _OSCCON 008F                       _TMR1GE 0086  
                     _TMR0IE 005D                       _TMR0IF 005A                       _TMR1IE 0460  
                     _TMR1IF 0060                       _TMR1CS 0081                       _TMR2IE 0461  
                     _TMR2IF 0061                       _PSSAC0 00BA                       _PSSAC1 00BB  
                     _PSSBD0 00B8                       _PSSBD1 00B9                       _OPTION 0081  
                     _TMR1ON 0080                       _TMR2ON 0092                       _WDTCON 0018  
                     _WDTPS0 00C1                       _WDTPS1 00C2                       _WDTPS2 00C3  
                     _WDTPS3 00C4                       _TRISA0 0428                       _TRISA1 0429  
                     _TRISA2 042A                       _TRISA3 042B                       _TRISC0 0438  
                     _TRISA4 042C                       _TRISC1 0439                       _TRISA5 042D  
                     _TRISC2 043A                       _TRISC3 043B                       _TRISC4 043C  
                     _TRISC5 043D                       _SLVREN 00DC                       _STATUS 0003  
                     _SWDTEN 00C0                       _ULPWUE 0475                 ?_IOPort_Init 0040  
        __end_of_Input_INLOW 03E1          __end_of_Input_INPUT 0400                       _flag_0 0046  
                     _flag_F 0045             __end_of_key_Scan 0365                 __pdataCOMMON 0046  
             ??_Input_INHIGH 0045            __end_of_Delay_xms 03A7               __pcstackCOMMON 0040  
                _Input_INLOW 03C4                  _Input_INPUT 03E1                   __pmaintext 036A  
         _Device_Memory_Init 0373                      _CCP1CON 0015                      _ECCPAS0 00BC  
                    _ECCPAS1 00BD                      _ECCPAS2 00BE                      _ECCPASE 00BF  
                    _CKMEAIE 0466                      _CKMEAIF 0066                      _T1CKPS0 0084  
                    _T1CKPS1 0085                      _T2CKPS0 0090                      _T2CKPS1 0091  
                    _T1OSCEN 0083          ?_Device_Memory_Init 0040                      _GO_DONE 00F9  
                    _MSCKCON 001B                      _OSCTUNE 0090                      _PWM1CON 0016  
                    _SOSCPRH 001D                      _SOSCPRL 001C                      _TOUTPS0 0093  
                    _TOUTPS1 0094                      _TOUTPS2 0095                      _TOUTPS3 0096  
                  ?_key_Scan 0040         ??_Device_Memory_Init 0040                      _nT1SYNC 0082  
       __end_of_Input_INHIGH 03C4         __size_of_IOPort_Init 000C                    _T2CONbits 0012  
       end_of_initialization 0368                   ??_key_Scan 0045                    _PORTAbits 0005  
                  _TRISAbits 0085                    _Delay_xms 038B                __pidataCOMMON 0360  
        start_initialization 0365                 ?_Input_INLOW 0040                 ?_Input_INPUT 0040  
      __size_of_Input_INHIGH 001D                   ?_Delay_xms 0040                  __pbssCOMMON 0045  
               _Input_INHIGH 03A7            __size_of_key_Scan 0004                    __ptext140 03E1  
                  __ptext141 038B                    __ptext142 037F                    __ptext143 0373  
                  __ptext144 0000                    __ptext137 0361                    __ptext138 03C4  
                  __ptext139 03A7                     _IOCAbits 0096                ??_IOPort_Init 0040  
                   _PIE1bits 008C  __size_of_Device_Memory_Init 000C                  ??_Delay_xms 0042  
                   _PCONbits 008E                     _PIR1bits 000C                     _GO_nDONE 00F9  
                   _WPUAbits 0095                   _EECON1bits 009C                   _EECON2bits 009D  
       __size_of_Input_INLOW 001D         __size_of_Input_INPUT 001F          __end_of_IOPort_Init 038B  
                _MSCKCONbits 001B                     _key_Scan 0361                __size_of_main 0009  
                 _PCLATHbits 000A                   _INTCONbits 000B                   Delay_xms@i 0043  
                 Delay_xms@x 0040                  _IOPort_Init 037F                   _OSCCONbits 008F  
                 _OPTION_REG 0081                  _SOSCPRHbits 001D                   _OPTIONbits 0081  
                 _WDTCONbits 0018                   _STATUSbits 0003  
